ARM GAS  /var/folders/_f/lv_lzyzs40z4gsrf231fdcyh0000gn/T//ccIIMnsQ.s 			page 1


   1              		.cpu cortex-m7
   2              		.eabi_attribute 28, 1
   3              		.eabi_attribute 20, 1
   4              		.eabi_attribute 21, 1
   5              		.eabi_attribute 23, 3
   6              		.eabi_attribute 24, 1
   7              		.eabi_attribute 25, 1
   8              		.eabi_attribute 26, 1
   9              		.eabi_attribute 30, 1
  10              		.eabi_attribute 34, 1
  11              		.eabi_attribute 18, 4
  12              		.file	"main.c"
  13              		.text
  14              	.Ltext0:
  15              		.cfi_sections	.debug_frame
  16              		.section	.text.MX_GPIO_Init,"ax",%progbits
  17              		.align	1
  18              		.syntax unified
  19              		.thumb
  20              		.thumb_func
  21              		.fpu fpv5-d16
  23              	MX_GPIO_Init:
  24              	.LFB145:
  25              		.file 1 "Src/main.c"
   1:Src/main.c    **** 
   2:Src/main.c    **** /**
   3:Src/main.c    ****   ******************************************************************************
   4:Src/main.c    ****   * @file           : main.c
   5:Src/main.c    ****   * @brief          : Main program body
   6:Src/main.c    ****   ******************************************************************************
   7:Src/main.c    ****   ** This notice applies to any and all portions of this file
   8:Src/main.c    ****   * that are not between comment pairs USER CODE BEGIN and
   9:Src/main.c    ****   * USER CODE END. Other portions of this file, whether 
  10:Src/main.c    ****   * inserted by the user or by software development tools
  11:Src/main.c    ****   * are owned by their respective copyright owners.
  12:Src/main.c    ****   *
  13:Src/main.c    ****   * COPYRIGHT(c) 2018 STMicroelectronics
  14:Src/main.c    ****   *
  15:Src/main.c    ****   * Redistribution and use in source and binary forms, with or without modification,
  16:Src/main.c    ****   * are permitted provided that the following conditions are met:
  17:Src/main.c    ****   *   1. Redistributions of source code must retain the above copyright notice,
  18:Src/main.c    ****   *      this list of conditions and the following disclaimer.
  19:Src/main.c    ****   *   2. Redistributions in binary form must reproduce the above copyright notice,
  20:Src/main.c    ****   *      this list of conditions and the following disclaimer in the documentation
  21:Src/main.c    ****   *      and/or other materials provided with the distribution.
  22:Src/main.c    ****   *   3. Neither the name of STMicroelectronics nor the names of its contributors
  23:Src/main.c    ****   *      may be used to endorse or promote products derived from this software
  24:Src/main.c    ****   *      without specific prior written permission.
  25:Src/main.c    ****   *
  26:Src/main.c    ****   * THIS SOFTWARE IS PROVIDED BY THE COPYRIGHT HOLDERS AND CONTRIBUTORS "AS IS"
  27:Src/main.c    ****   * AND ANY EXPRESS OR IMPLIED WARRANTIES, INCLUDING, BUT NOT LIMITED TO, THE
  28:Src/main.c    ****   * IMPLIED WARRANTIES OF MERCHANTABILITY AND FITNESS FOR A PARTICULAR PURPOSE ARE
  29:Src/main.c    ****   * DISCLAIMED. IN NO EVENT SHALL THE COPYRIGHT HOLDER OR CONTRIBUTORS BE LIABLE
  30:Src/main.c    ****   * FOR ANY DIRECT, INDIRECT, INCIDENTAL, SPECIAL, EXEMPLARY, OR CONSEQUENTIAL
  31:Src/main.c    ****   * DAMAGES (INCLUDING, BUT NOT LIMITED TO, PROCUREMENT OF SUBSTITUTE GOODS OR
  32:Src/main.c    ****   * SERVICES; LOSS OF USE, DATA, OR PROFITS; OR BUSINESS INTERRUPTION) HOWEVER
  33:Src/main.c    ****   * CAUSED AND ON ANY THEORY OF LIABILITY, WHETHER IN CONTRACT, STRICT LIABILITY,
ARM GAS  /var/folders/_f/lv_lzyzs40z4gsrf231fdcyh0000gn/T//ccIIMnsQ.s 			page 2


  34:Src/main.c    ****   * OR TORT (INCLUDING NEGLIGENCE OR OTHERWISE) ARISING IN ANY WAY OUT OF THE USE
  35:Src/main.c    ****   * OF THIS SOFTWARE, EVEN IF ADVISED OF THE POSSIBILITY OF SUCH DAMAGE.
  36:Src/main.c    ****   *
  37:Src/main.c    ****   ******************************************************************************
  38:Src/main.c    ****   */
  39:Src/main.c    **** /* Includes ------------------------------------------------------------------*/
  40:Src/main.c    **** #include "main.h"
  41:Src/main.c    **** #include "stm32f7xx_hal.h"
  42:Src/main.c    **** 
  43:Src/main.c    **** /* USER CODE BEGIN Includes */
  44:Src/main.c    **** 
  45:Src/main.c    **** /* USER CODE END Includes */
  46:Src/main.c    **** 
  47:Src/main.c    **** /* Private variables ---------------------------------------------------------*/
  48:Src/main.c    **** ADC_HandleTypeDef hadc1;
  49:Src/main.c    **** 
  50:Src/main.c    **** CAN_HandleTypeDef hcan3;
  51:Src/main.c    **** 
  52:Src/main.c    **** I2C_HandleTypeDef hi2c2;
  53:Src/main.c    **** 
  54:Src/main.c    **** TIM_HandleTypeDef htim2;
  55:Src/main.c    **** 
  56:Src/main.c    **** UART_HandleTypeDef huart4;
  57:Src/main.c    **** 
  58:Src/main.c    **** /* USER CODE BEGIN PV */
  59:Src/main.c    **** /* Private variables ---------------------------------------------------------*/
  60:Src/main.c    **** 
  61:Src/main.c    **** /* USER CODE END PV */
  62:Src/main.c    **** 
  63:Src/main.c    **** /* Private function prototypes -----------------------------------------------*/
  64:Src/main.c    **** void SystemClock_Config(void);
  65:Src/main.c    **** static void MX_GPIO_Init(void);
  66:Src/main.c    **** static void MX_ADC1_Init(void);
  67:Src/main.c    **** static void MX_CAN3_Init(void);
  68:Src/main.c    **** static void MX_I2C2_Init(void);
  69:Src/main.c    **** static void MX_TIM2_Init(void);
  70:Src/main.c    **** static void MX_UART4_Init(void);
  71:Src/main.c    **** 
  72:Src/main.c    **** void HAL_TIM_MspPostInit(TIM_HandleTypeDef *htim);
  73:Src/main.c    ****                                 
  74:Src/main.c    **** 
  75:Src/main.c    **** /* USER CODE BEGIN PFP */
  76:Src/main.c    **** /* Private function prototypes -----------------------------------------------*/
  77:Src/main.c    **** 
  78:Src/main.c    **** /* USER CODE END PFP */
  79:Src/main.c    **** 
  80:Src/main.c    **** /* USER CODE BEGIN 0 */
  81:Src/main.c    **** 
  82:Src/main.c    **** /* USER CODE END 0 */
  83:Src/main.c    **** 
  84:Src/main.c    **** /**
  85:Src/main.c    ****   * @brief  The application entry point.
  86:Src/main.c    ****   *
  87:Src/main.c    ****   * @retval None
  88:Src/main.c    ****   */
  89:Src/main.c    **** int main(void)
  90:Src/main.c    **** {
ARM GAS  /var/folders/_f/lv_lzyzs40z4gsrf231fdcyh0000gn/T//ccIIMnsQ.s 			page 3


  91:Src/main.c    ****   /* USER CODE BEGIN 1 */
  92:Src/main.c    **** 
  93:Src/main.c    ****   /* USER CODE END 1 */
  94:Src/main.c    **** 
  95:Src/main.c    ****   /* MCU Configuration----------------------------------------------------------*/
  96:Src/main.c    **** 
  97:Src/main.c    ****   /* Reset of all peripherals, Initializes the Flash interface and the Systick. */
  98:Src/main.c    ****   HAL_Init();
  99:Src/main.c    **** 
 100:Src/main.c    ****   /* USER CODE BEGIN Init */
 101:Src/main.c    **** 
 102:Src/main.c    ****   /* USER CODE END Init */
 103:Src/main.c    **** 
 104:Src/main.c    ****   /* Configure the system clock */
 105:Src/main.c    ****   SystemClock_Config();
 106:Src/main.c    **** 
 107:Src/main.c    ****   /* USER CODE BEGIN SysInit */
 108:Src/main.c    **** 
 109:Src/main.c    ****   /* USER CODE END SysInit */
 110:Src/main.c    **** 
 111:Src/main.c    ****   /* Initialize all configured peripherals */
 112:Src/main.c    ****   MX_GPIO_Init();
 113:Src/main.c    ****   MX_ADC1_Init();
 114:Src/main.c    ****   MX_CAN3_Init();
 115:Src/main.c    ****   MX_I2C2_Init();
 116:Src/main.c    ****   MX_TIM2_Init();
 117:Src/main.c    ****   MX_UART4_Init();
 118:Src/main.c    ****   /* USER CODE BEGIN 2 */
 119:Src/main.c    **** 
 120:Src/main.c    ****   /* USER CODE END 2 */
 121:Src/main.c    **** 
 122:Src/main.c    ****   /* Infinite loop */
 123:Src/main.c    ****   /* USER CODE BEGIN WHILE */
 124:Src/main.c    ****   while (1)
 125:Src/main.c    ****   {
 126:Src/main.c    **** 
 127:Src/main.c    ****   /* USER CODE END WHILE */
 128:Src/main.c    **** 
 129:Src/main.c    ****   /* USER CODE BEGIN 3 */
 130:Src/main.c    **** 
 131:Src/main.c    ****   }
 132:Src/main.c    ****   /* USER CODE END 3 */
 133:Src/main.c    **** 
 134:Src/main.c    **** }
 135:Src/main.c    **** 
 136:Src/main.c    **** /**
 137:Src/main.c    ****   * @brief System Clock Configuration
 138:Src/main.c    ****   * @retval None
 139:Src/main.c    ****   */
 140:Src/main.c    **** void SystemClock_Config(void)
 141:Src/main.c    **** {
 142:Src/main.c    **** 
 143:Src/main.c    ****   RCC_OscInitTypeDef RCC_OscInitStruct;
 144:Src/main.c    ****   RCC_ClkInitTypeDef RCC_ClkInitStruct;
 145:Src/main.c    ****   RCC_PeriphCLKInitTypeDef PeriphClkInitStruct;
 146:Src/main.c    **** 
 147:Src/main.c    ****     /**Configure the main internal regulator output voltage 
ARM GAS  /var/folders/_f/lv_lzyzs40z4gsrf231fdcyh0000gn/T//ccIIMnsQ.s 			page 4


 148:Src/main.c    ****     */
 149:Src/main.c    ****   __HAL_RCC_PWR_CLK_ENABLE();
 150:Src/main.c    **** 
 151:Src/main.c    ****   __HAL_PWR_VOLTAGESCALING_CONFIG(PWR_REGULATOR_VOLTAGE_SCALE3);
 152:Src/main.c    **** 
 153:Src/main.c    ****     /**Initializes the CPU, AHB and APB busses clocks 
 154:Src/main.c    ****     */
 155:Src/main.c    ****   RCC_OscInitStruct.OscillatorType = RCC_OSCILLATORTYPE_HSI;
 156:Src/main.c    ****   RCC_OscInitStruct.HSIState = RCC_HSI_ON;
 157:Src/main.c    ****   RCC_OscInitStruct.HSICalibrationValue = 16;
 158:Src/main.c    ****   RCC_OscInitStruct.PLL.PLLState = RCC_PLL_NONE;
 159:Src/main.c    ****   if (HAL_RCC_OscConfig(&RCC_OscInitStruct) != HAL_OK)
 160:Src/main.c    ****   {
 161:Src/main.c    ****     _Error_Handler(__FILE__, __LINE__);
 162:Src/main.c    ****   }
 163:Src/main.c    **** 
 164:Src/main.c    ****     /**Initializes the CPU, AHB and APB busses clocks 
 165:Src/main.c    ****     */
 166:Src/main.c    ****   RCC_ClkInitStruct.ClockType = RCC_CLOCKTYPE_HCLK|RCC_CLOCKTYPE_SYSCLK
 167:Src/main.c    ****                               |RCC_CLOCKTYPE_PCLK1|RCC_CLOCKTYPE_PCLK2;
 168:Src/main.c    ****   RCC_ClkInitStruct.SYSCLKSource = RCC_SYSCLKSOURCE_HSI;
 169:Src/main.c    ****   RCC_ClkInitStruct.AHBCLKDivider = RCC_SYSCLK_DIV1;
 170:Src/main.c    ****   RCC_ClkInitStruct.APB1CLKDivider = RCC_HCLK_DIV1;
 171:Src/main.c    ****   RCC_ClkInitStruct.APB2CLKDivider = RCC_HCLK_DIV1;
 172:Src/main.c    **** 
 173:Src/main.c    ****   if (HAL_RCC_ClockConfig(&RCC_ClkInitStruct, FLASH_LATENCY_0) != HAL_OK)
 174:Src/main.c    ****   {
 175:Src/main.c    ****     _Error_Handler(__FILE__, __LINE__);
 176:Src/main.c    ****   }
 177:Src/main.c    **** 
 178:Src/main.c    ****   PeriphClkInitStruct.PeriphClockSelection = RCC_PERIPHCLK_UART4|RCC_PERIPHCLK_I2C2;
 179:Src/main.c    ****   PeriphClkInitStruct.Uart4ClockSelection = RCC_UART4CLKSOURCE_PCLK1;
 180:Src/main.c    ****   PeriphClkInitStruct.I2c2ClockSelection = RCC_I2C2CLKSOURCE_PCLK1;
 181:Src/main.c    ****   if (HAL_RCCEx_PeriphCLKConfig(&PeriphClkInitStruct) != HAL_OK)
 182:Src/main.c    ****   {
 183:Src/main.c    ****     _Error_Handler(__FILE__, __LINE__);
 184:Src/main.c    ****   }
 185:Src/main.c    **** 
 186:Src/main.c    ****     /**Configure the Systick interrupt time 
 187:Src/main.c    ****     */
 188:Src/main.c    ****   HAL_SYSTICK_Config(HAL_RCC_GetHCLKFreq()/1000);
 189:Src/main.c    **** 
 190:Src/main.c    ****     /**Configure the Systick 
 191:Src/main.c    ****     */
 192:Src/main.c    ****   HAL_SYSTICK_CLKSourceConfig(SYSTICK_CLKSOURCE_HCLK);
 193:Src/main.c    **** 
 194:Src/main.c    ****   /* SysTick_IRQn interrupt configuration */
 195:Src/main.c    ****   HAL_NVIC_SetPriority(SysTick_IRQn, 0, 0);
 196:Src/main.c    **** }
 197:Src/main.c    **** 
 198:Src/main.c    **** /* ADC1 init function */
 199:Src/main.c    **** static void MX_ADC1_Init(void)
 200:Src/main.c    **** {
 201:Src/main.c    **** 
 202:Src/main.c    ****   ADC_ChannelConfTypeDef sConfig;
 203:Src/main.c    **** 
 204:Src/main.c    ****     /**Configure the global features of the ADC (Clock, Resolution, Data Alignment and number of co
ARM GAS  /var/folders/_f/lv_lzyzs40z4gsrf231fdcyh0000gn/T//ccIIMnsQ.s 			page 5


 205:Src/main.c    ****     */
 206:Src/main.c    ****   hadc1.Instance = ADC1;
 207:Src/main.c    ****   hadc1.Init.ClockPrescaler = ADC_CLOCK_SYNC_PCLK_DIV2;
 208:Src/main.c    ****   hadc1.Init.Resolution = ADC_RESOLUTION_12B;
 209:Src/main.c    ****   hadc1.Init.ScanConvMode = DISABLE;
 210:Src/main.c    ****   hadc1.Init.ContinuousConvMode = DISABLE;
 211:Src/main.c    ****   hadc1.Init.DiscontinuousConvMode = DISABLE;
 212:Src/main.c    ****   hadc1.Init.ExternalTrigConvEdge = ADC_EXTERNALTRIGCONVEDGE_NONE;
 213:Src/main.c    ****   hadc1.Init.ExternalTrigConv = ADC_SOFTWARE_START;
 214:Src/main.c    ****   hadc1.Init.DataAlign = ADC_DATAALIGN_RIGHT;
 215:Src/main.c    ****   hadc1.Init.NbrOfConversion = 1;
 216:Src/main.c    ****   hadc1.Init.DMAContinuousRequests = DISABLE;
 217:Src/main.c    ****   hadc1.Init.EOCSelection = ADC_EOC_SINGLE_CONV;
 218:Src/main.c    ****   if (HAL_ADC_Init(&hadc1) != HAL_OK)
 219:Src/main.c    ****   {
 220:Src/main.c    ****     _Error_Handler(__FILE__, __LINE__);
 221:Src/main.c    ****   }
 222:Src/main.c    **** 
 223:Src/main.c    ****     /**Configure for the selected ADC regular channel its corresponding rank in the sequencer and i
 224:Src/main.c    ****     */
 225:Src/main.c    ****   sConfig.Channel = ADC_CHANNEL_2;
 226:Src/main.c    ****   sConfig.Rank = ADC_REGULAR_RANK_1;
 227:Src/main.c    ****   sConfig.SamplingTime = ADC_SAMPLETIME_3CYCLES;
 228:Src/main.c    ****   if (HAL_ADC_ConfigChannel(&hadc1, &sConfig) != HAL_OK)
 229:Src/main.c    ****   {
 230:Src/main.c    ****     _Error_Handler(__FILE__, __LINE__);
 231:Src/main.c    ****   }
 232:Src/main.c    **** 
 233:Src/main.c    **** }
 234:Src/main.c    **** 
 235:Src/main.c    **** /* CAN3 init function */
 236:Src/main.c    **** static void MX_CAN3_Init(void)
 237:Src/main.c    **** {
 238:Src/main.c    **** 
 239:Src/main.c    ****   hcan3.Instance = CAN3;
 240:Src/main.c    ****   hcan3.Init.Prescaler = 16;
 241:Src/main.c    ****   hcan3.Init.Mode = CAN_MODE_NORMAL;
 242:Src/main.c    ****   hcan3.Init.SyncJumpWidth = CAN_SJW_1TQ;
 243:Src/main.c    ****   hcan3.Init.TimeSeg1 = CAN_BS1_1TQ;
 244:Src/main.c    ****   hcan3.Init.TimeSeg2 = CAN_BS2_1TQ;
 245:Src/main.c    ****   hcan3.Init.TimeTriggeredMode = DISABLE;
 246:Src/main.c    ****   hcan3.Init.AutoBusOff = DISABLE;
 247:Src/main.c    ****   hcan3.Init.AutoWakeUp = DISABLE;
 248:Src/main.c    ****   hcan3.Init.AutoRetransmission = DISABLE;
 249:Src/main.c    ****   hcan3.Init.ReceiveFifoLocked = DISABLE;
 250:Src/main.c    ****   hcan3.Init.TransmitFifoPriority = DISABLE;
 251:Src/main.c    ****   if (HAL_CAN_Init(&hcan3) != HAL_OK)
 252:Src/main.c    ****   {
 253:Src/main.c    ****     _Error_Handler(__FILE__, __LINE__);
 254:Src/main.c    ****   }
 255:Src/main.c    **** 
 256:Src/main.c    **** }
 257:Src/main.c    **** 
 258:Src/main.c    **** /* I2C2 init function */
 259:Src/main.c    **** static void MX_I2C2_Init(void)
 260:Src/main.c    **** {
 261:Src/main.c    **** 
ARM GAS  /var/folders/_f/lv_lzyzs40z4gsrf231fdcyh0000gn/T//ccIIMnsQ.s 			page 6


 262:Src/main.c    ****   hi2c2.Instance = I2C2;
 263:Src/main.c    ****   hi2c2.Init.Timing = 0x00303D5B;
 264:Src/main.c    ****   hi2c2.Init.OwnAddress1 = 0;
 265:Src/main.c    ****   hi2c2.Init.AddressingMode = I2C_ADDRESSINGMODE_7BIT;
 266:Src/main.c    ****   hi2c2.Init.DualAddressMode = I2C_DUALADDRESS_DISABLE;
 267:Src/main.c    ****   hi2c2.Init.OwnAddress2 = 0;
 268:Src/main.c    ****   hi2c2.Init.OwnAddress2Masks = I2C_OA2_NOMASK;
 269:Src/main.c    ****   hi2c2.Init.GeneralCallMode = I2C_GENERALCALL_DISABLE;
 270:Src/main.c    ****   hi2c2.Init.NoStretchMode = I2C_NOSTRETCH_DISABLE;
 271:Src/main.c    ****   if (HAL_I2C_Init(&hi2c2) != HAL_OK)
 272:Src/main.c    ****   {
 273:Src/main.c    ****     _Error_Handler(__FILE__, __LINE__);
 274:Src/main.c    ****   }
 275:Src/main.c    **** 
 276:Src/main.c    ****     /**Configure Analogue filter 
 277:Src/main.c    ****     */
 278:Src/main.c    ****   if (HAL_I2CEx_ConfigAnalogFilter(&hi2c2, I2C_ANALOGFILTER_ENABLE) != HAL_OK)
 279:Src/main.c    ****   {
 280:Src/main.c    ****     _Error_Handler(__FILE__, __LINE__);
 281:Src/main.c    ****   }
 282:Src/main.c    **** 
 283:Src/main.c    ****     /**Configure Digital filter 
 284:Src/main.c    ****     */
 285:Src/main.c    ****   if (HAL_I2CEx_ConfigDigitalFilter(&hi2c2, 0) != HAL_OK)
 286:Src/main.c    ****   {
 287:Src/main.c    ****     _Error_Handler(__FILE__, __LINE__);
 288:Src/main.c    ****   }
 289:Src/main.c    **** 
 290:Src/main.c    **** }
 291:Src/main.c    **** 
 292:Src/main.c    **** /* TIM2 init function */
 293:Src/main.c    **** static void MX_TIM2_Init(void)
 294:Src/main.c    **** {
 295:Src/main.c    **** 
 296:Src/main.c    ****   TIM_MasterConfigTypeDef sMasterConfig;
 297:Src/main.c    ****   TIM_OC_InitTypeDef sConfigOC;
 298:Src/main.c    **** 
 299:Src/main.c    ****   htim2.Instance = TIM2;
 300:Src/main.c    ****   htim2.Init.Prescaler = 0;
 301:Src/main.c    ****   htim2.Init.CounterMode = TIM_COUNTERMODE_UP;
 302:Src/main.c    ****   htim2.Init.Period = 0;
 303:Src/main.c    ****   htim2.Init.ClockDivision = TIM_CLOCKDIVISION_DIV1;
 304:Src/main.c    ****   htim2.Init.AutoReloadPreload = TIM_AUTORELOAD_PRELOAD_DISABLE;
 305:Src/main.c    ****   if (HAL_TIM_PWM_Init(&htim2) != HAL_OK)
 306:Src/main.c    ****   {
 307:Src/main.c    ****     _Error_Handler(__FILE__, __LINE__);
 308:Src/main.c    ****   }
 309:Src/main.c    **** 
 310:Src/main.c    ****   sMasterConfig.MasterOutputTrigger = TIM_TRGO_RESET;
 311:Src/main.c    ****   sMasterConfig.MasterSlaveMode = TIM_MASTERSLAVEMODE_DISABLE;
 312:Src/main.c    ****   if (HAL_TIMEx_MasterConfigSynchronization(&htim2, &sMasterConfig) != HAL_OK)
 313:Src/main.c    ****   {
 314:Src/main.c    ****     _Error_Handler(__FILE__, __LINE__);
 315:Src/main.c    ****   }
 316:Src/main.c    **** 
 317:Src/main.c    ****   sConfigOC.OCMode = TIM_OCMODE_PWM1;
 318:Src/main.c    ****   sConfigOC.Pulse = 0;
ARM GAS  /var/folders/_f/lv_lzyzs40z4gsrf231fdcyh0000gn/T//ccIIMnsQ.s 			page 7


 319:Src/main.c    ****   sConfigOC.OCPolarity = TIM_OCPOLARITY_HIGH;
 320:Src/main.c    ****   sConfigOC.OCFastMode = TIM_OCFAST_DISABLE;
 321:Src/main.c    ****   if (HAL_TIM_PWM_ConfigChannel(&htim2, &sConfigOC, TIM_CHANNEL_1) != HAL_OK)
 322:Src/main.c    ****   {
 323:Src/main.c    ****     _Error_Handler(__FILE__, __LINE__);
 324:Src/main.c    ****   }
 325:Src/main.c    **** 
 326:Src/main.c    ****   HAL_TIM_MspPostInit(&htim2);
 327:Src/main.c    **** 
 328:Src/main.c    **** }
 329:Src/main.c    **** 
 330:Src/main.c    **** /* UART4 init function */
 331:Src/main.c    **** static void MX_UART4_Init(void)
 332:Src/main.c    **** {
 333:Src/main.c    **** 
 334:Src/main.c    ****   huart4.Instance = UART4;
 335:Src/main.c    ****   huart4.Init.BaudRate = 115200;
 336:Src/main.c    ****   huart4.Init.WordLength = UART_WORDLENGTH_7B;
 337:Src/main.c    ****   huart4.Init.StopBits = UART_STOPBITS_1;
 338:Src/main.c    ****   huart4.Init.Parity = UART_PARITY_NONE;
 339:Src/main.c    ****   huart4.Init.Mode = UART_MODE_TX_RX;
 340:Src/main.c    ****   huart4.Init.HwFlowCtl = UART_HWCONTROL_NONE;
 341:Src/main.c    ****   huart4.Init.OverSampling = UART_OVERSAMPLING_16;
 342:Src/main.c    ****   huart4.Init.OneBitSampling = UART_ONE_BIT_SAMPLE_DISABLE;
 343:Src/main.c    ****   huart4.AdvancedInit.AdvFeatureInit = UART_ADVFEATURE_NO_INIT;
 344:Src/main.c    ****   if (HAL_UART_Init(&huart4) != HAL_OK)
 345:Src/main.c    ****   {
 346:Src/main.c    ****     _Error_Handler(__FILE__, __LINE__);
 347:Src/main.c    ****   }
 348:Src/main.c    **** 
 349:Src/main.c    **** }
 350:Src/main.c    **** 
 351:Src/main.c    **** /** Configure pins as 
 352:Src/main.c    ****         * Analog 
 353:Src/main.c    ****         * Input 
 354:Src/main.c    ****         * Output
 355:Src/main.c    ****         * EVENT_OUT
 356:Src/main.c    ****         * EXTI
 357:Src/main.c    **** */
 358:Src/main.c    **** static void MX_GPIO_Init(void)
 359:Src/main.c    **** {
  26              		.loc 1 359 0
  27              		.cfi_startproc
  28              		@ args = 0, pretend = 0, frame = 48
  29              		@ frame_needed = 0, uses_anonymous_args = 0
  30 0000 2DE9F043 		push	{r4, r5, r6, r7, r8, r9, lr}
  31              	.LCFI0:
  32              		.cfi_def_cfa_offset 28
  33              		.cfi_offset 4, -28
  34              		.cfi_offset 5, -24
  35              		.cfi_offset 6, -20
  36              		.cfi_offset 7, -16
  37              		.cfi_offset 8, -12
  38              		.cfi_offset 9, -8
  39              		.cfi_offset 14, -4
  40 0004 8DB0     		sub	sp, sp, #52
  41              	.LCFI1:
ARM GAS  /var/folders/_f/lv_lzyzs40z4gsrf231fdcyh0000gn/T//ccIIMnsQ.s 			page 8


  42              		.cfi_def_cfa_offset 80
  43              	.LBB2:
 360:Src/main.c    **** 
 361:Src/main.c    ****   GPIO_InitTypeDef GPIO_InitStruct;
 362:Src/main.c    **** 
 363:Src/main.c    ****   /* GPIO Ports Clock Enable */
 364:Src/main.c    ****   __HAL_RCC_GPIOC_CLK_ENABLE();
  44              		.loc 1 364 0
  45 0006 4D4B     		ldr	r3, .L3
  46 0008 1A6B     		ldr	r2, [r3, #48]
  47 000a 42F00402 		orr	r2, r2, #4
  48 000e 1A63     		str	r2, [r3, #48]
  49 0010 1A6B     		ldr	r2, [r3, #48]
  50 0012 02F00402 		and	r2, r2, #4
  51 0016 0192     		str	r2, [sp, #4]
  52 0018 019A     		ldr	r2, [sp, #4]
  53              	.LBE2:
  54              	.LBB3:
 365:Src/main.c    ****   __HAL_RCC_GPIOH_CLK_ENABLE();
  55              		.loc 1 365 0
  56 001a 1A6B     		ldr	r2, [r3, #48]
  57 001c 42F08002 		orr	r2, r2, #128
  58 0020 1A63     		str	r2, [r3, #48]
  59 0022 1A6B     		ldr	r2, [r3, #48]
  60 0024 02F08002 		and	r2, r2, #128
  61 0028 0292     		str	r2, [sp, #8]
  62 002a 029A     		ldr	r2, [sp, #8]
  63              	.LBE3:
  64              	.LBB4:
 366:Src/main.c    ****   __HAL_RCC_GPIOA_CLK_ENABLE();
  65              		.loc 1 366 0
  66 002c 1A6B     		ldr	r2, [r3, #48]
  67 002e 42F00102 		orr	r2, r2, #1
  68 0032 1A63     		str	r2, [r3, #48]
  69 0034 1A6B     		ldr	r2, [r3, #48]
  70 0036 02F00102 		and	r2, r2, #1
  71 003a 0392     		str	r2, [sp, #12]
  72 003c 039A     		ldr	r2, [sp, #12]
  73              	.LBE4:
  74              	.LBB5:
 367:Src/main.c    ****   __HAL_RCC_GPIOB_CLK_ENABLE();
  75              		.loc 1 367 0
  76 003e 1A6B     		ldr	r2, [r3, #48]
  77 0040 42F00202 		orr	r2, r2, #2
  78 0044 1A63     		str	r2, [r3, #48]
  79 0046 1A6B     		ldr	r2, [r3, #48]
  80 0048 02F00202 		and	r2, r2, #2
  81 004c 0492     		str	r2, [sp, #16]
  82 004e 049A     		ldr	r2, [sp, #16]
  83              	.LBE5:
  84              	.LBB6:
 368:Src/main.c    ****   __HAL_RCC_GPIOE_CLK_ENABLE();
  85              		.loc 1 368 0
  86 0050 1A6B     		ldr	r2, [r3, #48]
  87 0052 42F01002 		orr	r2, r2, #16
  88 0056 1A63     		str	r2, [r3, #48]
  89 0058 1A6B     		ldr	r2, [r3, #48]
ARM GAS  /var/folders/_f/lv_lzyzs40z4gsrf231fdcyh0000gn/T//ccIIMnsQ.s 			page 9


  90 005a 02F01002 		and	r2, r2, #16
  91 005e 0592     		str	r2, [sp, #20]
  92 0060 059A     		ldr	r2, [sp, #20]
  93              	.LBE6:
  94              	.LBB7:
 369:Src/main.c    ****   __HAL_RCC_GPIOD_CLK_ENABLE();
  95              		.loc 1 369 0
  96 0062 1A6B     		ldr	r2, [r3, #48]
  97 0064 42F00802 		orr	r2, r2, #8
  98 0068 1A63     		str	r2, [r3, #48]
  99 006a 1B6B     		ldr	r3, [r3, #48]
 100 006c 03F00803 		and	r3, r3, #8
 101 0070 0693     		str	r3, [sp, #24]
 102 0072 069B     		ldr	r3, [sp, #24]
 103              	.LBE7:
 370:Src/main.c    **** 
 371:Src/main.c    ****   /*Configure GPIO pin Output Level */
 372:Src/main.c    ****   HAL_GPIO_WritePin(GPIOC, LED_B_Pin|LED_R_Pin|LED_Y_Pin, GPIO_PIN_RESET);
 104              		.loc 1 372 0
 105 0074 324F     		ldr	r7, .L3+4
 106 0076 0022     		movs	r2, #0
 107 0078 4FF46051 		mov	r1, #14336
 108 007c 3846     		mov	r0, r7
 109 007e FFF7FEFF 		bl	HAL_GPIO_WritePin
 110              	.LVL0:
 373:Src/main.c    **** 
 374:Src/main.c    ****   /*Configure GPIO pin Output Level */
 375:Src/main.c    ****   HAL_GPIO_WritePin(GPIOA, BMGR_GPIO1_Pin|BMGR_SHDN_Pin, GPIO_PIN_RESET);
 111              		.loc 1 375 0
 112 0082 304E     		ldr	r6, .L3+8
 113 0084 0022     		movs	r2, #0
 114 0086 4FF49051 		mov	r1, #4608
 115 008a 3046     		mov	r0, r6
 116 008c FFF7FEFF 		bl	HAL_GPIO_WritePin
 117              	.LVL1:
 376:Src/main.c    **** 
 377:Src/main.c    ****   /*Configure GPIO pin Output Level */
 378:Src/main.c    ****   HAL_GPIO_WritePin(GPIOD, FAN_BATT_EN_Pin|TELEMETRY_EN_Pin|WSB_EN_Pin|BMU_EN_Pin 
 118              		.loc 1 378 0
 119 0090 DFF8B890 		ldr	r9, .L3+16
 120 0094 0022     		movs	r2, #0
 121 0096 FF21     		movs	r1, #255
 122 0098 4846     		mov	r0, r9
 123 009a FFF7FEFF 		bl	HAL_GPIO_WritePin
 124              	.LVL2:
 379:Src/main.c    ****                           |VCU_EN_Pin|FAN_LEFT_EN_Pin|PUMP_LEFT_EN_Pin|MC_LEFT_EN_Pin, GPIO_PIN_RES
 380:Src/main.c    **** 
 381:Src/main.c    ****   /*Configure GPIO pin Output Level */
 382:Src/main.c    ****   HAL_GPIO_WritePin(GPIOB, DCU_EN_Pin|FAN_RIGHT_EN_Pin|PUMP_RIGHT_EN_Pin|MC_RIGHT_EN_Pin, GPIO_PIN_
 125              		.loc 1 382 0
 126 009e DFF8B080 		ldr	r8, .L3+20
 127 00a2 0022     		movs	r2, #0
 128 00a4 4FF4F071 		mov	r1, #480
 129 00a8 4046     		mov	r0, r8
 130 00aa FFF7FEFF 		bl	HAL_GPIO_WritePin
 131              	.LVL3:
 383:Src/main.c    **** 
ARM GAS  /var/folders/_f/lv_lzyzs40z4gsrf231fdcyh0000gn/T//ccIIMnsQ.s 			page 10


 384:Src/main.c    ****   /*Configure GPIO pins : LED_B_Pin LED_R_Pin LED_Y_Pin */
 385:Src/main.c    ****   GPIO_InitStruct.Pin = LED_B_Pin|LED_R_Pin|LED_Y_Pin;
 132              		.loc 1 385 0
 133 00ae 4FF46053 		mov	r3, #14336
 134 00b2 0793     		str	r3, [sp, #28]
 386:Src/main.c    ****   GPIO_InitStruct.Mode = GPIO_MODE_OUTPUT_PP;
 135              		.loc 1 386 0
 136 00b4 0125     		movs	r5, #1
 137 00b6 0895     		str	r5, [sp, #32]
 387:Src/main.c    ****   GPIO_InitStruct.Pull = GPIO_NOPULL;
 138              		.loc 1 387 0
 139 00b8 0024     		movs	r4, #0
 140 00ba 0994     		str	r4, [sp, #36]
 388:Src/main.c    ****   GPIO_InitStruct.Speed = GPIO_SPEED_FREQ_LOW;
 141              		.loc 1 388 0
 142 00bc 0A94     		str	r4, [sp, #40]
 389:Src/main.c    ****   HAL_GPIO_Init(GPIOC, &GPIO_InitStruct);
 143              		.loc 1 389 0
 144 00be 07A9     		add	r1, sp, #28
 145 00c0 3846     		mov	r0, r7
 146 00c2 FFF7FEFF 		bl	HAL_GPIO_Init
 147              	.LVL4:
 390:Src/main.c    **** 
 391:Src/main.c    ****   /*Configure GPIO pins : BUT_1_Pin BUT_2_Pin */
 392:Src/main.c    ****   GPIO_InitStruct.Pin = BUT_1_Pin|BUT_2_Pin;
 148              		.loc 1 392 0
 149 00c6 4FF44043 		mov	r3, #49152
 150 00ca 0793     		str	r3, [sp, #28]
 393:Src/main.c    ****   GPIO_InitStruct.Mode = GPIO_MODE_INPUT;
 151              		.loc 1 393 0
 152 00cc 0894     		str	r4, [sp, #32]
 394:Src/main.c    ****   GPIO_InitStruct.Pull = GPIO_NOPULL;
 153              		.loc 1 394 0
 154 00ce 0994     		str	r4, [sp, #36]
 395:Src/main.c    ****   HAL_GPIO_Init(GPIOC, &GPIO_InitStruct);
 155              		.loc 1 395 0
 156 00d0 07A9     		add	r1, sp, #28
 157 00d2 3846     		mov	r0, r7
 158 00d4 FFF7FEFF 		bl	HAL_GPIO_Init
 159              	.LVL5:
 396:Src/main.c    **** 
 397:Src/main.c    ****   /*Configure GPIO pin : BUT_3_Pin */
 398:Src/main.c    ****   GPIO_InitStruct.Pin = BUT_3_Pin;
 160              		.loc 1 398 0
 161 00d8 4FF40043 		mov	r3, #32768
 162 00dc 0793     		str	r3, [sp, #28]
 399:Src/main.c    ****   GPIO_InitStruct.Mode = GPIO_MODE_INPUT;
 163              		.loc 1 399 0
 164 00de 0894     		str	r4, [sp, #32]
 400:Src/main.c    ****   GPIO_InitStruct.Pull = GPIO_NOPULL;
 165              		.loc 1 400 0
 166 00e0 0994     		str	r4, [sp, #36]
 401:Src/main.c    ****   HAL_GPIO_Init(BUT_3_GPIO_Port, &GPIO_InitStruct);
 167              		.loc 1 401 0
 168 00e2 07A9     		add	r1, sp, #28
 169 00e4 1848     		ldr	r0, .L3+12
 170 00e6 FFF7FEFF 		bl	HAL_GPIO_Init
ARM GAS  /var/folders/_f/lv_lzyzs40z4gsrf231fdcyh0000gn/T//ccIIMnsQ.s 			page 11


 171              	.LVL6:
 402:Src/main.c    **** 
 403:Src/main.c    ****   /*Configure GPIO pins : BMGR_DCOKn_Pin PA10 BMGR_GPIO3_Pin */
 404:Src/main.c    ****   GPIO_InitStruct.Pin = BMGR_DCOKn_Pin|GPIO_PIN_10|BMGR_GPIO3_Pin;
 172              		.loc 1 404 0
 173 00ea 4FF45063 		mov	r3, #3328
 174 00ee 0793     		str	r3, [sp, #28]
 405:Src/main.c    ****   GPIO_InitStruct.Mode = GPIO_MODE_INPUT;
 175              		.loc 1 405 0
 176 00f0 0894     		str	r4, [sp, #32]
 406:Src/main.c    ****   GPIO_InitStruct.Pull = GPIO_NOPULL;
 177              		.loc 1 406 0
 178 00f2 0994     		str	r4, [sp, #36]
 407:Src/main.c    ****   HAL_GPIO_Init(GPIOA, &GPIO_InitStruct);
 179              		.loc 1 407 0
 180 00f4 07A9     		add	r1, sp, #28
 181 00f6 3046     		mov	r0, r6
 182 00f8 FFF7FEFF 		bl	HAL_GPIO_Init
 183              	.LVL7:
 408:Src/main.c    **** 
 409:Src/main.c    ****   /*Configure GPIO pins : BMGR_GPIO1_Pin BMGR_SHDN_Pin */
 410:Src/main.c    ****   GPIO_InitStruct.Pin = BMGR_GPIO1_Pin|BMGR_SHDN_Pin;
 184              		.loc 1 410 0
 185 00fc 4FF49053 		mov	r3, #4608
 186 0100 0793     		str	r3, [sp, #28]
 411:Src/main.c    ****   GPIO_InitStruct.Mode = GPIO_MODE_OUTPUT_PP;
 187              		.loc 1 411 0
 188 0102 0895     		str	r5, [sp, #32]
 412:Src/main.c    ****   GPIO_InitStruct.Pull = GPIO_NOPULL;
 189              		.loc 1 412 0
 190 0104 0994     		str	r4, [sp, #36]
 413:Src/main.c    ****   GPIO_InitStruct.Speed = GPIO_SPEED_FREQ_LOW;
 191              		.loc 1 413 0
 192 0106 0A94     		str	r4, [sp, #40]
 414:Src/main.c    ****   HAL_GPIO_Init(GPIOA, &GPIO_InitStruct);
 193              		.loc 1 414 0
 194 0108 07A9     		add	r1, sp, #28
 195 010a 3046     		mov	r0, r6
 196 010c FFF7FEFF 		bl	HAL_GPIO_Init
 197              	.LVL8:
 415:Src/main.c    **** 
 416:Src/main.c    ****   /*Configure GPIO pins : FAN_BATT_EN_Pin TELEMETRY_EN_Pin WSB_EN_Pin BMU_EN_Pin 
 417:Src/main.c    ****                            VCU_EN_Pin FAN_LEFT_EN_Pin PUMP_LEFT_EN_Pin MC_LEFT_EN_Pin */
 418:Src/main.c    ****   GPIO_InitStruct.Pin = FAN_BATT_EN_Pin|TELEMETRY_EN_Pin|WSB_EN_Pin|BMU_EN_Pin 
 198              		.loc 1 418 0
 199 0110 FF23     		movs	r3, #255
 200 0112 0793     		str	r3, [sp, #28]
 419:Src/main.c    ****                           |VCU_EN_Pin|FAN_LEFT_EN_Pin|PUMP_LEFT_EN_Pin|MC_LEFT_EN_Pin;
 420:Src/main.c    ****   GPIO_InitStruct.Mode = GPIO_MODE_OUTPUT_PP;
 201              		.loc 1 420 0
 202 0114 0895     		str	r5, [sp, #32]
 421:Src/main.c    ****   GPIO_InitStruct.Pull = GPIO_NOPULL;
 203              		.loc 1 421 0
 204 0116 0994     		str	r4, [sp, #36]
 422:Src/main.c    ****   GPIO_InitStruct.Speed = GPIO_SPEED_FREQ_LOW;
 205              		.loc 1 422 0
 206 0118 0A94     		str	r4, [sp, #40]
ARM GAS  /var/folders/_f/lv_lzyzs40z4gsrf231fdcyh0000gn/T//ccIIMnsQ.s 			page 12


 423:Src/main.c    ****   HAL_GPIO_Init(GPIOD, &GPIO_InitStruct);
 207              		.loc 1 423 0
 208 011a 07A9     		add	r1, sp, #28
 209 011c 4846     		mov	r0, r9
 210 011e FFF7FEFF 		bl	HAL_GPIO_Init
 211              	.LVL9:
 424:Src/main.c    **** 
 425:Src/main.c    ****   /*Configure GPIO pins : DCU_EN_Pin FAN_RIGHT_EN_Pin PUMP_RIGHT_EN_Pin MC_RIGHT_EN_Pin */
 426:Src/main.c    ****   GPIO_InitStruct.Pin = DCU_EN_Pin|FAN_RIGHT_EN_Pin|PUMP_RIGHT_EN_Pin|MC_RIGHT_EN_Pin;
 212              		.loc 1 426 0
 213 0122 4FF4F073 		mov	r3, #480
 214 0126 0793     		str	r3, [sp, #28]
 427:Src/main.c    ****   GPIO_InitStruct.Mode = GPIO_MODE_OUTPUT_PP;
 215              		.loc 1 427 0
 216 0128 0895     		str	r5, [sp, #32]
 428:Src/main.c    ****   GPIO_InitStruct.Pull = GPIO_NOPULL;
 217              		.loc 1 428 0
 218 012a 0994     		str	r4, [sp, #36]
 429:Src/main.c    ****   GPIO_InitStruct.Speed = GPIO_SPEED_FREQ_LOW;
 219              		.loc 1 429 0
 220 012c 0A94     		str	r4, [sp, #40]
 430:Src/main.c    ****   HAL_GPIO_Init(GPIOB, &GPIO_InitStruct);
 221              		.loc 1 430 0
 222 012e 07A9     		add	r1, sp, #28
 223 0130 4046     		mov	r0, r8
 224 0132 FFF7FEFF 		bl	HAL_GPIO_Init
 225              	.LVL10:
 431:Src/main.c    **** 
 432:Src/main.c    **** }
 226              		.loc 1 432 0
 227 0136 0DB0     		add	sp, sp, #52
 228              	.LCFI2:
 229              		.cfi_def_cfa_offset 28
 230              		@ sp needed
 231 0138 BDE8F083 		pop	{r4, r5, r6, r7, r8, r9, pc}
 232              	.L4:
 233              		.align	2
 234              	.L3:
 235 013c 00380240 		.word	1073887232
 236 0140 00080240 		.word	1073874944
 237 0144 00000240 		.word	1073872896
 238 0148 00100240 		.word	1073876992
 239 014c 000C0240 		.word	1073875968
 240 0150 00040240 		.word	1073873920
 241              		.cfi_endproc
 242              	.LFE145:
 244              		.section	.text._Error_Handler,"ax",%progbits
 245              		.align	1
 246              		.global	_Error_Handler
 247              		.syntax unified
 248              		.thumb
 249              		.thumb_func
 250              		.fpu fpv5-d16
 252              	_Error_Handler:
 253              	.LFB146:
 433:Src/main.c    **** 
 434:Src/main.c    **** /* USER CODE BEGIN 4 */
ARM GAS  /var/folders/_f/lv_lzyzs40z4gsrf231fdcyh0000gn/T//ccIIMnsQ.s 			page 13


 435:Src/main.c    **** 
 436:Src/main.c    **** /* USER CODE END 4 */
 437:Src/main.c    **** 
 438:Src/main.c    **** /**
 439:Src/main.c    ****   * @brief  This function is executed in case of error occurrence.
 440:Src/main.c    ****   * @param  file: The file name as string.
 441:Src/main.c    ****   * @param  line: The line in file as a number.
 442:Src/main.c    ****   * @retval None
 443:Src/main.c    ****   */
 444:Src/main.c    **** void _Error_Handler(char *file, int line)
 445:Src/main.c    **** {
 254              		.loc 1 445 0
 255              		.cfi_startproc
 256              		@ Volatile: function does not return.
 257              		@ args = 0, pretend = 0, frame = 0
 258              		@ frame_needed = 0, uses_anonymous_args = 0
 259              		@ link register save eliminated.
 260              	.LVL11:
 261              	.L6:
 262 0000 FEE7     		b	.L6
 263              		.cfi_endproc
 264              	.LFE146:
 266              		.section	.text.MX_ADC1_Init,"ax",%progbits
 267              		.align	1
 268              		.syntax unified
 269              		.thumb
 270              		.thumb_func
 271              		.fpu fpv5-d16
 273              	MX_ADC1_Init:
 274              	.LFB140:
 200:Src/main.c    **** 
 275              		.loc 1 200 0
 276              		.cfi_startproc
 277              		@ args = 0, pretend = 0, frame = 16
 278              		@ frame_needed = 0, uses_anonymous_args = 0
 200:Src/main.c    **** 
 279              		.loc 1 200 0
 280 0000 00B5     		push	{lr}
 281              	.LCFI3:
 282              		.cfi_def_cfa_offset 4
 283              		.cfi_offset 14, -4
 284 0002 85B0     		sub	sp, sp, #20
 285              	.LCFI4:
 286              		.cfi_def_cfa_offset 24
 206:Src/main.c    ****   hadc1.Init.ClockPrescaler = ADC_CLOCK_SYNC_PCLK_DIV2;
 287              		.loc 1 206 0
 288 0004 1448     		ldr	r0, .L13
 289 0006 154B     		ldr	r3, .L13+4
 290 0008 0360     		str	r3, [r0]
 207:Src/main.c    ****   hadc1.Init.Resolution = ADC_RESOLUTION_12B;
 291              		.loc 1 207 0
 292 000a 0023     		movs	r3, #0
 293 000c 4360     		str	r3, [r0, #4]
 208:Src/main.c    ****   hadc1.Init.ScanConvMode = DISABLE;
 294              		.loc 1 208 0
 295 000e 8360     		str	r3, [r0, #8]
 209:Src/main.c    ****   hadc1.Init.ContinuousConvMode = DISABLE;
ARM GAS  /var/folders/_f/lv_lzyzs40z4gsrf231fdcyh0000gn/T//ccIIMnsQ.s 			page 14


 296              		.loc 1 209 0
 297 0010 0361     		str	r3, [r0, #16]
 210:Src/main.c    ****   hadc1.Init.DiscontinuousConvMode = DISABLE;
 298              		.loc 1 210 0
 299 0012 8361     		str	r3, [r0, #24]
 211:Src/main.c    ****   hadc1.Init.ExternalTrigConvEdge = ADC_EXTERNALTRIGCONVEDGE_NONE;
 300              		.loc 1 211 0
 301 0014 0362     		str	r3, [r0, #32]
 212:Src/main.c    ****   hadc1.Init.ExternalTrigConv = ADC_SOFTWARE_START;
 302              		.loc 1 212 0
 303 0016 C362     		str	r3, [r0, #44]
 213:Src/main.c    ****   hadc1.Init.DataAlign = ADC_DATAALIGN_RIGHT;
 304              		.loc 1 213 0
 305 0018 114A     		ldr	r2, .L13+8
 306 001a 8262     		str	r2, [r0, #40]
 214:Src/main.c    ****   hadc1.Init.NbrOfConversion = 1;
 307              		.loc 1 214 0
 308 001c C360     		str	r3, [r0, #12]
 215:Src/main.c    ****   hadc1.Init.DMAContinuousRequests = DISABLE;
 309              		.loc 1 215 0
 310 001e 0122     		movs	r2, #1
 311 0020 C261     		str	r2, [r0, #28]
 216:Src/main.c    ****   hadc1.Init.EOCSelection = ADC_EOC_SINGLE_CONV;
 312              		.loc 1 216 0
 313 0022 0363     		str	r3, [r0, #48]
 217:Src/main.c    ****   if (HAL_ADC_Init(&hadc1) != HAL_OK)
 314              		.loc 1 217 0
 315 0024 4261     		str	r2, [r0, #20]
 218:Src/main.c    ****   {
 316              		.loc 1 218 0
 317 0026 FFF7FEFF 		bl	HAL_ADC_Init
 318              	.LVL12:
 319 002a 68B9     		cbnz	r0, .L11
 225:Src/main.c    ****   sConfig.Rank = ADC_REGULAR_RANK_1;
 320              		.loc 1 225 0
 321 002c 0223     		movs	r3, #2
 322 002e 0093     		str	r3, [sp]
 226:Src/main.c    ****   sConfig.SamplingTime = ADC_SAMPLETIME_3CYCLES;
 323              		.loc 1 226 0
 324 0030 0123     		movs	r3, #1
 325 0032 0193     		str	r3, [sp, #4]
 227:Src/main.c    ****   if (HAL_ADC_ConfigChannel(&hadc1, &sConfig) != HAL_OK)
 326              		.loc 1 227 0
 327 0034 0023     		movs	r3, #0
 328 0036 0293     		str	r3, [sp, #8]
 228:Src/main.c    ****   {
 329              		.loc 1 228 0
 330 0038 6946     		mov	r1, sp
 331 003a 0748     		ldr	r0, .L13
 332 003c FFF7FEFF 		bl	HAL_ADC_ConfigChannel
 333              	.LVL13:
 334 0040 30B9     		cbnz	r0, .L12
 233:Src/main.c    **** 
 335              		.loc 1 233 0
 336 0042 05B0     		add	sp, sp, #20
 337              	.LCFI5:
 338              		.cfi_remember_state
ARM GAS  /var/folders/_f/lv_lzyzs40z4gsrf231fdcyh0000gn/T//ccIIMnsQ.s 			page 15


 339              		.cfi_def_cfa_offset 4
 340              		@ sp needed
 341 0044 5DF804FB 		ldr	pc, [sp], #4
 342              	.L11:
 343              	.LCFI6:
 344              		.cfi_restore_state
 220:Src/main.c    ****   }
 345              		.loc 1 220 0
 346 0048 DC21     		movs	r1, #220
 347 004a 0648     		ldr	r0, .L13+12
 348 004c FFF7FEFF 		bl	_Error_Handler
 349              	.LVL14:
 350              	.L12:
 230:Src/main.c    ****   }
 351              		.loc 1 230 0
 352 0050 E621     		movs	r1, #230
 353 0052 0448     		ldr	r0, .L13+12
 354 0054 FFF7FEFF 		bl	_Error_Handler
 355              	.LVL15:
 356              	.L14:
 357              		.align	2
 358              	.L13:
 359 0058 00000000 		.word	hadc1
 360 005c 00200140 		.word	1073815552
 361 0060 0100000F 		.word	251658241
 362 0064 00000000 		.word	.LC0
 363              		.cfi_endproc
 364              	.LFE140:
 366              		.section	.text.MX_CAN3_Init,"ax",%progbits
 367              		.align	1
 368              		.syntax unified
 369              		.thumb
 370              		.thumb_func
 371              		.fpu fpv5-d16
 373              	MX_CAN3_Init:
 374              	.LFB141:
 237:Src/main.c    **** 
 375              		.loc 1 237 0
 376              		.cfi_startproc
 377              		@ args = 0, pretend = 0, frame = 0
 378              		@ frame_needed = 0, uses_anonymous_args = 0
 379 0000 08B5     		push	{r3, lr}
 380              	.LCFI7:
 381              		.cfi_def_cfa_offset 8
 382              		.cfi_offset 3, -8
 383              		.cfi_offset 14, -4
 239:Src/main.c    ****   hcan3.Init.Prescaler = 16;
 384              		.loc 1 239 0
 385 0002 0C48     		ldr	r0, .L19
 386 0004 0C4B     		ldr	r3, .L19+4
 387 0006 0360     		str	r3, [r0]
 240:Src/main.c    ****   hcan3.Init.Mode = CAN_MODE_NORMAL;
 388              		.loc 1 240 0
 389 0008 1023     		movs	r3, #16
 390 000a 4360     		str	r3, [r0, #4]
 241:Src/main.c    ****   hcan3.Init.SyncJumpWidth = CAN_SJW_1TQ;
 391              		.loc 1 241 0
ARM GAS  /var/folders/_f/lv_lzyzs40z4gsrf231fdcyh0000gn/T//ccIIMnsQ.s 			page 16


 392 000c 0023     		movs	r3, #0
 393 000e 8360     		str	r3, [r0, #8]
 242:Src/main.c    ****   hcan3.Init.TimeSeg1 = CAN_BS1_1TQ;
 394              		.loc 1 242 0
 395 0010 C360     		str	r3, [r0, #12]
 243:Src/main.c    ****   hcan3.Init.TimeSeg2 = CAN_BS2_1TQ;
 396              		.loc 1 243 0
 397 0012 0361     		str	r3, [r0, #16]
 244:Src/main.c    ****   hcan3.Init.TimeTriggeredMode = DISABLE;
 398              		.loc 1 244 0
 399 0014 4361     		str	r3, [r0, #20]
 245:Src/main.c    ****   hcan3.Init.AutoBusOff = DISABLE;
 400              		.loc 1 245 0
 401 0016 0376     		strb	r3, [r0, #24]
 246:Src/main.c    ****   hcan3.Init.AutoWakeUp = DISABLE;
 402              		.loc 1 246 0
 403 0018 4376     		strb	r3, [r0, #25]
 247:Src/main.c    ****   hcan3.Init.AutoRetransmission = DISABLE;
 404              		.loc 1 247 0
 405 001a 8376     		strb	r3, [r0, #26]
 248:Src/main.c    ****   hcan3.Init.ReceiveFifoLocked = DISABLE;
 406              		.loc 1 248 0
 407 001c C376     		strb	r3, [r0, #27]
 249:Src/main.c    ****   hcan3.Init.TransmitFifoPriority = DISABLE;
 408              		.loc 1 249 0
 409 001e 0377     		strb	r3, [r0, #28]
 250:Src/main.c    ****   if (HAL_CAN_Init(&hcan3) != HAL_OK)
 410              		.loc 1 250 0
 411 0020 4377     		strb	r3, [r0, #29]
 251:Src/main.c    ****   {
 412              		.loc 1 251 0
 413 0022 FFF7FEFF 		bl	HAL_CAN_Init
 414              	.LVL16:
 415 0026 00B9     		cbnz	r0, .L18
 256:Src/main.c    **** 
 416              		.loc 1 256 0
 417 0028 08BD     		pop	{r3, pc}
 418              	.L18:
 253:Src/main.c    ****   }
 419              		.loc 1 253 0
 420 002a FD21     		movs	r1, #253
 421 002c 0348     		ldr	r0, .L19+8
 422 002e FFF7FEFF 		bl	_Error_Handler
 423              	.LVL17:
 424              	.L20:
 425 0032 00BF     		.align	2
 426              	.L19:
 427 0034 00000000 		.word	hcan3
 428 0038 00340040 		.word	1073755136
 429 003c 00000000 		.word	.LC0
 430              		.cfi_endproc
 431              	.LFE141:
 433              		.section	.text.MX_I2C2_Init,"ax",%progbits
 434              		.align	1
 435              		.syntax unified
 436              		.thumb
 437              		.thumb_func
ARM GAS  /var/folders/_f/lv_lzyzs40z4gsrf231fdcyh0000gn/T//ccIIMnsQ.s 			page 17


 438              		.fpu fpv5-d16
 440              	MX_I2C2_Init:
 441              	.LFB142:
 260:Src/main.c    **** 
 442              		.loc 1 260 0
 443              		.cfi_startproc
 444              		@ args = 0, pretend = 0, frame = 0
 445              		@ frame_needed = 0, uses_anonymous_args = 0
 446 0000 08B5     		push	{r3, lr}
 447              	.LCFI8:
 448              		.cfi_def_cfa_offset 8
 449              		.cfi_offset 3, -8
 450              		.cfi_offset 14, -4
 262:Src/main.c    ****   hi2c2.Init.Timing = 0x00303D5B;
 451              		.loc 1 262 0
 452 0002 1548     		ldr	r0, .L29
 453 0004 154B     		ldr	r3, .L29+4
 454 0006 0360     		str	r3, [r0]
 263:Src/main.c    ****   hi2c2.Init.OwnAddress1 = 0;
 455              		.loc 1 263 0
 456 0008 154B     		ldr	r3, .L29+8
 457 000a 4360     		str	r3, [r0, #4]
 264:Src/main.c    ****   hi2c2.Init.AddressingMode = I2C_ADDRESSINGMODE_7BIT;
 458              		.loc 1 264 0
 459 000c 0023     		movs	r3, #0
 460 000e 8360     		str	r3, [r0, #8]
 265:Src/main.c    ****   hi2c2.Init.DualAddressMode = I2C_DUALADDRESS_DISABLE;
 461              		.loc 1 265 0
 462 0010 0122     		movs	r2, #1
 463 0012 C260     		str	r2, [r0, #12]
 266:Src/main.c    ****   hi2c2.Init.OwnAddress2 = 0;
 464              		.loc 1 266 0
 465 0014 0361     		str	r3, [r0, #16]
 267:Src/main.c    ****   hi2c2.Init.OwnAddress2Masks = I2C_OA2_NOMASK;
 466              		.loc 1 267 0
 467 0016 4361     		str	r3, [r0, #20]
 268:Src/main.c    ****   hi2c2.Init.GeneralCallMode = I2C_GENERALCALL_DISABLE;
 468              		.loc 1 268 0
 469 0018 8361     		str	r3, [r0, #24]
 269:Src/main.c    ****   hi2c2.Init.NoStretchMode = I2C_NOSTRETCH_DISABLE;
 470              		.loc 1 269 0
 471 001a C361     		str	r3, [r0, #28]
 270:Src/main.c    ****   if (HAL_I2C_Init(&hi2c2) != HAL_OK)
 472              		.loc 1 270 0
 473 001c 0362     		str	r3, [r0, #32]
 271:Src/main.c    ****   {
 474              		.loc 1 271 0
 475 001e FFF7FEFF 		bl	HAL_I2C_Init
 476              	.LVL18:
 477 0022 50B9     		cbnz	r0, .L26
 278:Src/main.c    ****   {
 478              		.loc 1 278 0
 479 0024 0021     		movs	r1, #0
 480 0026 0C48     		ldr	r0, .L29
 481 0028 FFF7FEFF 		bl	HAL_I2CEx_ConfigAnalogFilter
 482              	.LVL19:
 483 002c 50B9     		cbnz	r0, .L27
ARM GAS  /var/folders/_f/lv_lzyzs40z4gsrf231fdcyh0000gn/T//ccIIMnsQ.s 			page 18


 285:Src/main.c    ****   {
 484              		.loc 1 285 0
 485 002e 0021     		movs	r1, #0
 486 0030 0948     		ldr	r0, .L29
 487 0032 FFF7FEFF 		bl	HAL_I2CEx_ConfigDigitalFilter
 488              	.LVL20:
 489 0036 50B9     		cbnz	r0, .L28
 290:Src/main.c    **** 
 490              		.loc 1 290 0
 491 0038 08BD     		pop	{r3, pc}
 492              	.L26:
 273:Src/main.c    ****   }
 493              		.loc 1 273 0
 494 003a 40F21111 		movw	r1, #273
 495 003e 0948     		ldr	r0, .L29+12
 496 0040 FFF7FEFF 		bl	_Error_Handler
 497              	.LVL21:
 498              	.L27:
 280:Src/main.c    ****   }
 499              		.loc 1 280 0
 500 0044 4FF48C71 		mov	r1, #280
 501 0048 0648     		ldr	r0, .L29+12
 502 004a FFF7FEFF 		bl	_Error_Handler
 503              	.LVL22:
 504              	.L28:
 287:Src/main.c    ****   }
 505              		.loc 1 287 0
 506 004e 40F21F11 		movw	r1, #287
 507 0052 0448     		ldr	r0, .L29+12
 508 0054 FFF7FEFF 		bl	_Error_Handler
 509              	.LVL23:
 510              	.L30:
 511              		.align	2
 512              	.L29:
 513 0058 00000000 		.word	hi2c2
 514 005c 00580040 		.word	1073764352
 515 0060 5B3D3000 		.word	3161435
 516 0064 00000000 		.word	.LC0
 517              		.cfi_endproc
 518              	.LFE142:
 520              		.section	.text.MX_TIM2_Init,"ax",%progbits
 521              		.align	1
 522              		.syntax unified
 523              		.thumb
 524              		.thumb_func
 525              		.fpu fpv5-d16
 527              	MX_TIM2_Init:
 528              	.LFB143:
 294:Src/main.c    **** 
 529              		.loc 1 294 0
 530              		.cfi_startproc
 531              		@ args = 0, pretend = 0, frame = 40
 532              		@ frame_needed = 0, uses_anonymous_args = 0
 533 0000 00B5     		push	{lr}
 534              	.LCFI9:
 535              		.cfi_def_cfa_offset 4
 536              		.cfi_offset 14, -4
ARM GAS  /var/folders/_f/lv_lzyzs40z4gsrf231fdcyh0000gn/T//ccIIMnsQ.s 			page 19


 537 0002 8BB0     		sub	sp, sp, #44
 538              	.LCFI10:
 539              		.cfi_def_cfa_offset 48
 299:Src/main.c    ****   htim2.Init.Prescaler = 0;
 540              		.loc 1 299 0
 541 0004 1A48     		ldr	r0, .L39
 542 0006 4FF08043 		mov	r3, #1073741824
 543 000a 0360     		str	r3, [r0]
 300:Src/main.c    ****   htim2.Init.CounterMode = TIM_COUNTERMODE_UP;
 544              		.loc 1 300 0
 545 000c 0023     		movs	r3, #0
 546 000e 4360     		str	r3, [r0, #4]
 301:Src/main.c    ****   htim2.Init.Period = 0;
 547              		.loc 1 301 0
 548 0010 8360     		str	r3, [r0, #8]
 302:Src/main.c    ****   htim2.Init.ClockDivision = TIM_CLOCKDIVISION_DIV1;
 549              		.loc 1 302 0
 550 0012 C360     		str	r3, [r0, #12]
 303:Src/main.c    ****   htim2.Init.AutoReloadPreload = TIM_AUTORELOAD_PRELOAD_DISABLE;
 551              		.loc 1 303 0
 552 0014 0361     		str	r3, [r0, #16]
 304:Src/main.c    ****   if (HAL_TIM_PWM_Init(&htim2) != HAL_OK)
 553              		.loc 1 304 0
 554 0016 8361     		str	r3, [r0, #24]
 305:Src/main.c    ****   {
 555              		.loc 1 305 0
 556 0018 FFF7FEFF 		bl	HAL_TIM_PWM_Init
 557              	.LVL24:
 558 001c C0B9     		cbnz	r0, .L36
 310:Src/main.c    ****   sMasterConfig.MasterSlaveMode = TIM_MASTERSLAVEMODE_DISABLE;
 559              		.loc 1 310 0
 560 001e 0023     		movs	r3, #0
 561 0020 0793     		str	r3, [sp, #28]
 311:Src/main.c    ****   if (HAL_TIMEx_MasterConfigSynchronization(&htim2, &sMasterConfig) != HAL_OK)
 562              		.loc 1 311 0
 563 0022 0993     		str	r3, [sp, #36]
 312:Src/main.c    ****   {
 564              		.loc 1 312 0
 565 0024 07A9     		add	r1, sp, #28
 566 0026 1248     		ldr	r0, .L39
 567 0028 FFF7FEFF 		bl	HAL_TIMEx_MasterConfigSynchronization
 568              	.LVL25:
 569 002c A8B9     		cbnz	r0, .L37
 317:Src/main.c    ****   sConfigOC.Pulse = 0;
 570              		.loc 1 317 0
 571 002e 6023     		movs	r3, #96
 572 0030 0093     		str	r3, [sp]
 318:Src/main.c    ****   sConfigOC.OCPolarity = TIM_OCPOLARITY_HIGH;
 573              		.loc 1 318 0
 574 0032 0022     		movs	r2, #0
 575 0034 0192     		str	r2, [sp, #4]
 319:Src/main.c    ****   sConfigOC.OCFastMode = TIM_OCFAST_DISABLE;
 576              		.loc 1 319 0
 577 0036 0292     		str	r2, [sp, #8]
 320:Src/main.c    ****   if (HAL_TIM_PWM_ConfigChannel(&htim2, &sConfigOC, TIM_CHANNEL_1) != HAL_OK)
 578              		.loc 1 320 0
 579 0038 0492     		str	r2, [sp, #16]
ARM GAS  /var/folders/_f/lv_lzyzs40z4gsrf231fdcyh0000gn/T//ccIIMnsQ.s 			page 20


 321:Src/main.c    ****   {
 580              		.loc 1 321 0
 581 003a 6946     		mov	r1, sp
 582 003c 0C48     		ldr	r0, .L39
 583 003e FFF7FEFF 		bl	HAL_TIM_PWM_ConfigChannel
 584              	.LVL26:
 585 0042 78B9     		cbnz	r0, .L38
 326:Src/main.c    **** 
 586              		.loc 1 326 0
 587 0044 0A48     		ldr	r0, .L39
 588 0046 FFF7FEFF 		bl	HAL_TIM_MspPostInit
 589              	.LVL27:
 328:Src/main.c    **** 
 590              		.loc 1 328 0
 591 004a 0BB0     		add	sp, sp, #44
 592              	.LCFI11:
 593              		.cfi_remember_state
 594              		.cfi_def_cfa_offset 4
 595              		@ sp needed
 596 004c 5DF804FB 		ldr	pc, [sp], #4
 597              	.L36:
 598              	.LCFI12:
 599              		.cfi_restore_state
 307:Src/main.c    ****   }
 600              		.loc 1 307 0
 601 0050 40F23311 		movw	r1, #307
 602 0054 0748     		ldr	r0, .L39+4
 603 0056 FFF7FEFF 		bl	_Error_Handler
 604              	.LVL28:
 605              	.L37:
 314:Src/main.c    ****   }
 606              		.loc 1 314 0
 607 005a 4FF49D71 		mov	r1, #314
 608 005e 0548     		ldr	r0, .L39+4
 609 0060 FFF7FEFF 		bl	_Error_Handler
 610              	.LVL29:
 611              	.L38:
 323:Src/main.c    ****   }
 612              		.loc 1 323 0
 613 0064 40F24311 		movw	r1, #323
 614 0068 0248     		ldr	r0, .L39+4
 615 006a FFF7FEFF 		bl	_Error_Handler
 616              	.LVL30:
 617              	.L40:
 618 006e 00BF     		.align	2
 619              	.L39:
 620 0070 00000000 		.word	htim2
 621 0074 00000000 		.word	.LC0
 622              		.cfi_endproc
 623              	.LFE143:
 625              		.section	.text.MX_UART4_Init,"ax",%progbits
 626              		.align	1
 627              		.syntax unified
 628              		.thumb
 629              		.thumb_func
 630              		.fpu fpv5-d16
 632              	MX_UART4_Init:
ARM GAS  /var/folders/_f/lv_lzyzs40z4gsrf231fdcyh0000gn/T//ccIIMnsQ.s 			page 21


 633              	.LFB144:
 332:Src/main.c    **** 
 634              		.loc 1 332 0
 635              		.cfi_startproc
 636              		@ args = 0, pretend = 0, frame = 0
 637              		@ frame_needed = 0, uses_anonymous_args = 0
 638 0000 08B5     		push	{r3, lr}
 639              	.LCFI13:
 640              		.cfi_def_cfa_offset 8
 641              		.cfi_offset 3, -8
 642              		.cfi_offset 14, -4
 334:Src/main.c    ****   huart4.Init.BaudRate = 115200;
 643              		.loc 1 334 0
 644 0002 0D48     		ldr	r0, .L45
 645 0004 0D4B     		ldr	r3, .L45+4
 646 0006 0360     		str	r3, [r0]
 335:Src/main.c    ****   huart4.Init.WordLength = UART_WORDLENGTH_7B;
 647              		.loc 1 335 0
 648 0008 4FF4E133 		mov	r3, #115200
 649 000c 4360     		str	r3, [r0, #4]
 336:Src/main.c    ****   huart4.Init.StopBits = UART_STOPBITS_1;
 650              		.loc 1 336 0
 651 000e 4FF08053 		mov	r3, #268435456
 652 0012 8360     		str	r3, [r0, #8]
 337:Src/main.c    ****   huart4.Init.Parity = UART_PARITY_NONE;
 653              		.loc 1 337 0
 654 0014 0023     		movs	r3, #0
 655 0016 C360     		str	r3, [r0, #12]
 338:Src/main.c    ****   huart4.Init.Mode = UART_MODE_TX_RX;
 656              		.loc 1 338 0
 657 0018 0361     		str	r3, [r0, #16]
 339:Src/main.c    ****   huart4.Init.HwFlowCtl = UART_HWCONTROL_NONE;
 658              		.loc 1 339 0
 659 001a 0C22     		movs	r2, #12
 660 001c 4261     		str	r2, [r0, #20]
 340:Src/main.c    ****   huart4.Init.OverSampling = UART_OVERSAMPLING_16;
 661              		.loc 1 340 0
 662 001e 8361     		str	r3, [r0, #24]
 341:Src/main.c    ****   huart4.Init.OneBitSampling = UART_ONE_BIT_SAMPLE_DISABLE;
 663              		.loc 1 341 0
 664 0020 C361     		str	r3, [r0, #28]
 342:Src/main.c    ****   huart4.AdvancedInit.AdvFeatureInit = UART_ADVFEATURE_NO_INIT;
 665              		.loc 1 342 0
 666 0022 0362     		str	r3, [r0, #32]
 343:Src/main.c    ****   if (HAL_UART_Init(&huart4) != HAL_OK)
 667              		.loc 1 343 0
 668 0024 4362     		str	r3, [r0, #36]
 344:Src/main.c    ****   {
 669              		.loc 1 344 0
 670 0026 FFF7FEFF 		bl	HAL_UART_Init
 671              	.LVL31:
 672 002a 00B9     		cbnz	r0, .L44
 349:Src/main.c    **** 
 673              		.loc 1 349 0
 674 002c 08BD     		pop	{r3, pc}
 675              	.L44:
 346:Src/main.c    ****   }
ARM GAS  /var/folders/_f/lv_lzyzs40z4gsrf231fdcyh0000gn/T//ccIIMnsQ.s 			page 22


 676              		.loc 1 346 0
 677 002e 4FF4AD71 		mov	r1, #346
 678 0032 0348     		ldr	r0, .L45+8
 679 0034 FFF7FEFF 		bl	_Error_Handler
 680              	.LVL32:
 681              	.L46:
 682              		.align	2
 683              	.L45:
 684 0038 00000000 		.word	huart4
 685 003c 004C0040 		.word	1073761280
 686 0040 00000000 		.word	.LC0
 687              		.cfi_endproc
 688              	.LFE144:
 690              		.section	.text.SystemClock_Config,"ax",%progbits
 691              		.align	1
 692              		.global	SystemClock_Config
 693              		.syntax unified
 694              		.thumb
 695              		.thumb_func
 696              		.fpu fpv5-d16
 698              	SystemClock_Config:
 699              	.LFB139:
 141:Src/main.c    **** 
 700              		.loc 1 141 0
 701              		.cfi_startproc
 702              		@ args = 0, pretend = 0, frame = 224
 703              		@ frame_needed = 0, uses_anonymous_args = 0
 704 0000 00B5     		push	{lr}
 705              	.LCFI14:
 706              		.cfi_def_cfa_offset 4
 707              		.cfi_offset 14, -4
 708 0002 B9B0     		sub	sp, sp, #228
 709              	.LCFI15:
 710              		.cfi_def_cfa_offset 232
 711              	.LBB8:
 149:Src/main.c    **** 
 712              		.loc 1 149 0
 713 0004 2B4B     		ldr	r3, .L55
 714 0006 1A6C     		ldr	r2, [r3, #64]
 715 0008 42F08052 		orr	r2, r2, #268435456
 716 000c 1A64     		str	r2, [r3, #64]
 717 000e 1B6C     		ldr	r3, [r3, #64]
 718 0010 03F08053 		and	r3, r3, #268435456
 719 0014 0093     		str	r3, [sp]
 720 0016 009B     		ldr	r3, [sp]
 721              	.LBE8:
 722              	.LBB9:
 151:Src/main.c    **** 
 723              		.loc 1 151 0
 724 0018 274A     		ldr	r2, .L55+4
 725 001a 1368     		ldr	r3, [r2]
 726 001c 23F44043 		bic	r3, r3, #49152
 727 0020 43F48043 		orr	r3, r3, #16384
 728 0024 1360     		str	r3, [r2]
 729 0026 1368     		ldr	r3, [r2]
 730 0028 03F44043 		and	r3, r3, #49152
 731 002c 0193     		str	r3, [sp, #4]
ARM GAS  /var/folders/_f/lv_lzyzs40z4gsrf231fdcyh0000gn/T//ccIIMnsQ.s 			page 23


 732 002e 019B     		ldr	r3, [sp, #4]
 733              	.LBE9:
 155:Src/main.c    ****   RCC_OscInitStruct.HSIState = RCC_HSI_ON;
 734              		.loc 1 155 0
 735 0030 0223     		movs	r3, #2
 736 0032 2B93     		str	r3, [sp, #172]
 156:Src/main.c    ****   RCC_OscInitStruct.HSICalibrationValue = 16;
 737              		.loc 1 156 0
 738 0034 0123     		movs	r3, #1
 739 0036 2E93     		str	r3, [sp, #184]
 157:Src/main.c    ****   RCC_OscInitStruct.PLL.PLLState = RCC_PLL_NONE;
 740              		.loc 1 157 0
 741 0038 1023     		movs	r3, #16
 742 003a 2F93     		str	r3, [sp, #188]
 158:Src/main.c    ****   if (HAL_RCC_OscConfig(&RCC_OscInitStruct) != HAL_OK)
 743              		.loc 1 158 0
 744 003c 0023     		movs	r3, #0
 745 003e 3193     		str	r3, [sp, #196]
 159:Src/main.c    ****   {
 746              		.loc 1 159 0
 747 0040 2BA8     		add	r0, sp, #172
 748 0042 FFF7FEFF 		bl	HAL_RCC_OscConfig
 749              	.LVL33:
 750 0046 40BB     		cbnz	r0, .L52
 166:Src/main.c    ****                               |RCC_CLOCKTYPE_PCLK1|RCC_CLOCKTYPE_PCLK2;
 751              		.loc 1 166 0
 752 0048 0F23     		movs	r3, #15
 753 004a 2693     		str	r3, [sp, #152]
 168:Src/main.c    ****   RCC_ClkInitStruct.AHBCLKDivider = RCC_SYSCLK_DIV1;
 754              		.loc 1 168 0
 755 004c 0021     		movs	r1, #0
 756 004e 2791     		str	r1, [sp, #156]
 169:Src/main.c    ****   RCC_ClkInitStruct.APB1CLKDivider = RCC_HCLK_DIV1;
 757              		.loc 1 169 0
 758 0050 2891     		str	r1, [sp, #160]
 170:Src/main.c    ****   RCC_ClkInitStruct.APB2CLKDivider = RCC_HCLK_DIV1;
 759              		.loc 1 170 0
 760 0052 2991     		str	r1, [sp, #164]
 171:Src/main.c    **** 
 761              		.loc 1 171 0
 762 0054 2A91     		str	r1, [sp, #168]
 173:Src/main.c    ****   {
 763              		.loc 1 173 0
 764 0056 26A8     		add	r0, sp, #152
 765 0058 FFF7FEFF 		bl	HAL_RCC_ClockConfig
 766              	.LVL34:
 767 005c 08BB     		cbnz	r0, .L53
 178:Src/main.c    ****   PeriphClkInitStruct.Uart4ClockSelection = RCC_UART4CLKSOURCE_PCLK1;
 768              		.loc 1 178 0
 769 005e 4FF40243 		mov	r3, #33280
 770 0062 0293     		str	r3, [sp, #8]
 179:Src/main.c    ****   PeriphClkInitStruct.I2c2ClockSelection = RCC_I2C2CLKSOURCE_PCLK1;
 771              		.loc 1 179 0
 772 0064 0023     		movs	r3, #0
 773 0066 1693     		str	r3, [sp, #88]
 180:Src/main.c    ****   if (HAL_RCCEx_PeriphCLKConfig(&PeriphClkInitStruct) != HAL_OK)
 774              		.loc 1 180 0
ARM GAS  /var/folders/_f/lv_lzyzs40z4gsrf231fdcyh0000gn/T//ccIIMnsQ.s 			page 24


 775 0068 1C93     		str	r3, [sp, #112]
 181:Src/main.c    ****   {
 776              		.loc 1 181 0
 777 006a 02A8     		add	r0, sp, #8
 778 006c FFF7FEFF 		bl	HAL_RCCEx_PeriphCLKConfig
 779              	.LVL35:
 780 0070 D8B9     		cbnz	r0, .L54
 188:Src/main.c    **** 
 781              		.loc 1 188 0
 782 0072 FFF7FEFF 		bl	HAL_RCC_GetHCLKFreq
 783              	.LVL36:
 784 0076 114B     		ldr	r3, .L55+8
 785 0078 A3FB0030 		umull	r3, r0, r3, r0
 786 007c 8009     		lsrs	r0, r0, #6
 787 007e FFF7FEFF 		bl	HAL_SYSTICK_Config
 788              	.LVL37:
 192:Src/main.c    **** 
 789              		.loc 1 192 0
 790 0082 0420     		movs	r0, #4
 791 0084 FFF7FEFF 		bl	HAL_SYSTICK_CLKSourceConfig
 792              	.LVL38:
 195:Src/main.c    **** }
 793              		.loc 1 195 0
 794 0088 0022     		movs	r2, #0
 795 008a 1146     		mov	r1, r2
 796 008c 4FF0FF30 		mov	r0, #-1
 797 0090 FFF7FEFF 		bl	HAL_NVIC_SetPriority
 798              	.LVL39:
 196:Src/main.c    **** 
 799              		.loc 1 196 0
 800 0094 39B0     		add	sp, sp, #228
 801              	.LCFI16:
 802              		.cfi_remember_state
 803              		.cfi_def_cfa_offset 4
 804              		@ sp needed
 805 0096 5DF804FB 		ldr	pc, [sp], #4
 806              	.L52:
 807              	.LCFI17:
 808              		.cfi_restore_state
 161:Src/main.c    ****   }
 809              		.loc 1 161 0
 810 009a A121     		movs	r1, #161
 811 009c 0848     		ldr	r0, .L55+12
 812 009e FFF7FEFF 		bl	_Error_Handler
 813              	.LVL40:
 814              	.L53:
 175:Src/main.c    ****   }
 815              		.loc 1 175 0
 816 00a2 AF21     		movs	r1, #175
 817 00a4 0648     		ldr	r0, .L55+12
 818 00a6 FFF7FEFF 		bl	_Error_Handler
 819              	.LVL41:
 820              	.L54:
 183:Src/main.c    ****   }
 821              		.loc 1 183 0
 822 00aa B721     		movs	r1, #183
 823 00ac 0448     		ldr	r0, .L55+12
ARM GAS  /var/folders/_f/lv_lzyzs40z4gsrf231fdcyh0000gn/T//ccIIMnsQ.s 			page 25


 824 00ae FFF7FEFF 		bl	_Error_Handler
 825              	.LVL42:
 826              	.L56:
 827 00b2 00BF     		.align	2
 828              	.L55:
 829 00b4 00380240 		.word	1073887232
 830 00b8 00700040 		.word	1073770496
 831 00bc D34D6210 		.word	274877907
 832 00c0 00000000 		.word	.LC0
 833              		.cfi_endproc
 834              	.LFE139:
 836              		.section	.text.main,"ax",%progbits
 837              		.align	1
 838              		.global	main
 839              		.syntax unified
 840              		.thumb
 841              		.thumb_func
 842              		.fpu fpv5-d16
 844              	main:
 845              	.LFB138:
  90:Src/main.c    ****   /* USER CODE BEGIN 1 */
 846              		.loc 1 90 0
 847              		.cfi_startproc
 848              		@ Volatile: function does not return.
 849              		@ args = 0, pretend = 0, frame = 0
 850              		@ frame_needed = 0, uses_anonymous_args = 0
 851 0000 08B5     		push	{r3, lr}
 852              	.LCFI18:
 853              		.cfi_def_cfa_offset 8
 854              		.cfi_offset 3, -8
 855              		.cfi_offset 14, -4
  98:Src/main.c    **** 
 856              		.loc 1 98 0
 857 0002 FFF7FEFF 		bl	HAL_Init
 858              	.LVL43:
 105:Src/main.c    **** 
 859              		.loc 1 105 0
 860 0006 FFF7FEFF 		bl	SystemClock_Config
 861              	.LVL44:
 112:Src/main.c    ****   MX_ADC1_Init();
 862              		.loc 1 112 0
 863 000a FFF7FEFF 		bl	MX_GPIO_Init
 864              	.LVL45:
 113:Src/main.c    ****   MX_CAN3_Init();
 865              		.loc 1 113 0
 866 000e FFF7FEFF 		bl	MX_ADC1_Init
 867              	.LVL46:
 114:Src/main.c    ****   MX_I2C2_Init();
 868              		.loc 1 114 0
 869 0012 FFF7FEFF 		bl	MX_CAN3_Init
 870              	.LVL47:
 115:Src/main.c    ****   MX_TIM2_Init();
 871              		.loc 1 115 0
 872 0016 FFF7FEFF 		bl	MX_I2C2_Init
 873              	.LVL48:
 116:Src/main.c    ****   MX_UART4_Init();
 874              		.loc 1 116 0
ARM GAS  /var/folders/_f/lv_lzyzs40z4gsrf231fdcyh0000gn/T//ccIIMnsQ.s 			page 26


 875 001a FFF7FEFF 		bl	MX_TIM2_Init
 876              	.LVL49:
 117:Src/main.c    ****   /* USER CODE BEGIN 2 */
 877              		.loc 1 117 0
 878 001e FFF7FEFF 		bl	MX_UART4_Init
 879              	.LVL50:
 880              	.L58:
 881 0022 FEE7     		b	.L58
 882              		.cfi_endproc
 883              	.LFE138:
 885              		.comm	huart4,112,4
 886              		.comm	htim2,64,4
 887              		.comm	hi2c2,76,4
 888              		.comm	hcan3,40,4
 889              		.comm	hadc1,72,4
 890              		.section	.rodata.MX_ADC1_Init.str1.4,"aMS",%progbits,1
 891              		.align	2
 892              	.LC0:
 893 0000 5372632F 		.ascii	"Src/main.c\000"
 893      6D61696E 
 893      2E6300
 894              		.text
 895              	.Letext0:
 896              		.file 2 "/Users/Richard/bin/arm/gcc-arm-none-eabi-7-2017-q4-major/arm-none-eabi/include/machine/_d
 897              		.file 3 "/Users/Richard/bin/arm/gcc-arm-none-eabi-7-2017-q4-major/arm-none-eabi/include/sys/_stdin
 898              		.file 4 "Drivers/CMSIS/Include/core_cm7.h"
 899              		.file 5 "Drivers/CMSIS/Device/ST/STM32F7xx/Include/system_stm32f7xx.h"
 900              		.file 6 "Drivers/CMSIS/Device/ST/STM32F7xx/Include/stm32f767xx.h"
 901              		.file 7 "Drivers/CMSIS/Device/ST/STM32F7xx/Include/stm32f7xx.h"
 902              		.file 8 "/Users/Richard/bin/arm/gcc-arm-none-eabi-7-2017-q4-major/arm-none-eabi/include/sys/lock.h
 903              		.file 9 "/Users/Richard/bin/arm/gcc-arm-none-eabi-7-2017-q4-major/arm-none-eabi/include/sys/_types
 904              		.file 10 "/Users/Richard/bin/arm/gcc-arm-none-eabi-7-2017-q4-major/lib/gcc/arm-none-eabi/7.2.1/inc
 905              		.file 11 "/Users/Richard/bin/arm/gcc-arm-none-eabi-7-2017-q4-major/arm-none-eabi/include/sys/reent
 906              		.file 12 "Drivers/STM32F7xx_HAL_Driver/Inc/stm32f7xx_hal_def.h"
 907              		.file 13 "Drivers/STM32F7xx_HAL_Driver/Inc/stm32f7xx_hal_rcc_ex.h"
 908              		.file 14 "Drivers/STM32F7xx_HAL_Driver/Inc/stm32f7xx_hal_rcc.h"
 909              		.file 15 "Drivers/STM32F7xx_HAL_Driver/Inc/stm32f7xx_hal_gpio.h"
 910              		.file 16 "Drivers/STM32F7xx_HAL_Driver/Inc/stm32f7xx_hal_dma.h"
 911              		.file 17 "Drivers/STM32F7xx_HAL_Driver/Inc/stm32f7xx_hal_adc.h"
 912              		.file 18 "Drivers/STM32F7xx_HAL_Driver/Inc/stm32f7xx_hal_can.h"
 913              		.file 19 "Drivers/STM32F7xx_HAL_Driver/Inc/stm32f7xx_hal_i2c.h"
 914              		.file 20 "Drivers/STM32F7xx_HAL_Driver/Inc/stm32f7xx_hal_tim.h"
 915              		.file 21 "Drivers/STM32F7xx_HAL_Driver/Inc/stm32f7xx_hal_tim_ex.h"
 916              		.file 22 "Drivers/STM32F7xx_HAL_Driver/Inc/stm32f7xx_hal_uart.h"
 917              		.file 23 "Drivers/STM32F7xx_HAL_Driver/Inc/stm32f7xx_hal_i2c_ex.h"
 918              		.file 24 "Drivers/STM32F7xx_HAL_Driver/Inc/stm32f7xx_hal_cortex.h"
 919              		.file 25 "Drivers/STM32F7xx_HAL_Driver/Inc/stm32f7xx_hal.h"
ARM GAS  /var/folders/_f/lv_lzyzs40z4gsrf231fdcyh0000gn/T//ccIIMnsQ.s 			page 27

