ARM GAS  /var/folders/_f/lv_lzyzs40z4gsrf231fdcyh0000gn/T//ccB3MVWE.s 			page 1


   1              		.cpu cortex-m7
   2              		.eabi_attribute 28, 1
   3              		.eabi_attribute 20, 1
   4              		.eabi_attribute 21, 1
   5              		.eabi_attribute 23, 3
   6              		.eabi_attribute 24, 1
   7              		.eabi_attribute 25, 1
   8              		.eabi_attribute 26, 1
   9              		.eabi_attribute 30, 1
  10              		.eabi_attribute 34, 1
  11              		.eabi_attribute 18, 4
  12              		.file	"stm32f7xx_hal_can.c"
  13              		.text
  14              	.Ltext0:
  15              		.cfi_sections	.debug_frame
  16              		.section	.text.HAL_CAN_MspInit,"ax",%progbits
  17              		.align	1
  18              		.weak	HAL_CAN_MspInit
  19              		.syntax unified
  20              		.thumb
  21              		.thumb_func
  22              		.fpu fpv5-d16
  24              	HAL_CAN_MspInit:
  25              	.LFB140:
  26              		.file 1 "Drivers/STM32F7xx_HAL_Driver/Src/stm32f7xx_hal_can.c"
   1:Drivers/STM32F7xx_HAL_Driver/Src/stm32f7xx_hal_can.c **** /**
   2:Drivers/STM32F7xx_HAL_Driver/Src/stm32f7xx_hal_can.c ****   ******************************************************************************
   3:Drivers/STM32F7xx_HAL_Driver/Src/stm32f7xx_hal_can.c ****   * @file    stm32f7xx_hal_can.c
   4:Drivers/STM32F7xx_HAL_Driver/Src/stm32f7xx_hal_can.c ****   * @author  MCD Application Team
   5:Drivers/STM32F7xx_HAL_Driver/Src/stm32f7xx_hal_can.c ****   * @brief   CAN HAL module driver.
   6:Drivers/STM32F7xx_HAL_Driver/Src/stm32f7xx_hal_can.c ****   *          This file provides firmware functions to manage the following
   7:Drivers/STM32F7xx_HAL_Driver/Src/stm32f7xx_hal_can.c ****   *          functionalities of the Controller Area Network (CAN) peripheral:
   8:Drivers/STM32F7xx_HAL_Driver/Src/stm32f7xx_hal_can.c ****   *           + Initialization and de-initialization functions
   9:Drivers/STM32F7xx_HAL_Driver/Src/stm32f7xx_hal_can.c ****   *           + Configuration functions
  10:Drivers/STM32F7xx_HAL_Driver/Src/stm32f7xx_hal_can.c ****   *           + Control functions
  11:Drivers/STM32F7xx_HAL_Driver/Src/stm32f7xx_hal_can.c ****   *           + Interrupts management
  12:Drivers/STM32F7xx_HAL_Driver/Src/stm32f7xx_hal_can.c ****   *           + Callbacks functions
  13:Drivers/STM32F7xx_HAL_Driver/Src/stm32f7xx_hal_can.c ****   *           + Peripheral State and Error functions
  14:Drivers/STM32F7xx_HAL_Driver/Src/stm32f7xx_hal_can.c ****   *
  15:Drivers/STM32F7xx_HAL_Driver/Src/stm32f7xx_hal_can.c ****   @verbatim
  16:Drivers/STM32F7xx_HAL_Driver/Src/stm32f7xx_hal_can.c ****   ==============================================================================
  17:Drivers/STM32F7xx_HAL_Driver/Src/stm32f7xx_hal_can.c ****                         ##### How to use this driver #####
  18:Drivers/STM32F7xx_HAL_Driver/Src/stm32f7xx_hal_can.c ****   ==============================================================================
  19:Drivers/STM32F7xx_HAL_Driver/Src/stm32f7xx_hal_can.c ****     [..]
  20:Drivers/STM32F7xx_HAL_Driver/Src/stm32f7xx_hal_can.c ****       (#) Initialize the CAN low level resources by implementing the
  21:Drivers/STM32F7xx_HAL_Driver/Src/stm32f7xx_hal_can.c ****           HAL_CAN_MspInit():
  22:Drivers/STM32F7xx_HAL_Driver/Src/stm32f7xx_hal_can.c ****          (++) Enable the CAN interface clock using __HAL_RCC_CANx_CLK_ENABLE()
  23:Drivers/STM32F7xx_HAL_Driver/Src/stm32f7xx_hal_can.c ****          (++) Configure CAN pins
  24:Drivers/STM32F7xx_HAL_Driver/Src/stm32f7xx_hal_can.c ****              (+++) Enable the clock for the CAN GPIOs
  25:Drivers/STM32F7xx_HAL_Driver/Src/stm32f7xx_hal_can.c ****              (+++) Configure CAN pins as alternate function open-drain
  26:Drivers/STM32F7xx_HAL_Driver/Src/stm32f7xx_hal_can.c ****          (++) In case of using interrupts (e.g. HAL_CAN_ActivateNotification())
  27:Drivers/STM32F7xx_HAL_Driver/Src/stm32f7xx_hal_can.c ****              (+++) Configure the CAN interrupt priority using
  28:Drivers/STM32F7xx_HAL_Driver/Src/stm32f7xx_hal_can.c ****                    HAL_NVIC_SetPriority()
  29:Drivers/STM32F7xx_HAL_Driver/Src/stm32f7xx_hal_can.c ****              (+++) Enable the CAN IRQ handler using HAL_NVIC_EnableIRQ()
  30:Drivers/STM32F7xx_HAL_Driver/Src/stm32f7xx_hal_can.c ****              (+++) In CAN IRQ handler, call HAL_CAN_IRQHandler()
  31:Drivers/STM32F7xx_HAL_Driver/Src/stm32f7xx_hal_can.c **** 
  32:Drivers/STM32F7xx_HAL_Driver/Src/stm32f7xx_hal_can.c ****       (#) Initialize the CAN peripheral using HAL_CAN_Init() function. This
ARM GAS  /var/folders/_f/lv_lzyzs40z4gsrf231fdcyh0000gn/T//ccB3MVWE.s 			page 2


  33:Drivers/STM32F7xx_HAL_Driver/Src/stm32f7xx_hal_can.c ****           function resorts to HAL_CAN_MspInit() for low-level initialization.
  34:Drivers/STM32F7xx_HAL_Driver/Src/stm32f7xx_hal_can.c **** 
  35:Drivers/STM32F7xx_HAL_Driver/Src/stm32f7xx_hal_can.c ****       (#) Configure the reception filters using the following configuration
  36:Drivers/STM32F7xx_HAL_Driver/Src/stm32f7xx_hal_can.c ****           functions:
  37:Drivers/STM32F7xx_HAL_Driver/Src/stm32f7xx_hal_can.c ****             (++) HAL_CAN_ConfigFilter()
  38:Drivers/STM32F7xx_HAL_Driver/Src/stm32f7xx_hal_can.c **** 
  39:Drivers/STM32F7xx_HAL_Driver/Src/stm32f7xx_hal_can.c ****       (#) Start the CAN module using HAL_CAN_Start() function. At this level
  40:Drivers/STM32F7xx_HAL_Driver/Src/stm32f7xx_hal_can.c ****           the node is active on the bus: it receive messages, and can send
  41:Drivers/STM32F7xx_HAL_Driver/Src/stm32f7xx_hal_can.c ****           messages.
  42:Drivers/STM32F7xx_HAL_Driver/Src/stm32f7xx_hal_can.c **** 
  43:Drivers/STM32F7xx_HAL_Driver/Src/stm32f7xx_hal_can.c ****       (#) To manage messages transmission, the following Tx control functions
  44:Drivers/STM32F7xx_HAL_Driver/Src/stm32f7xx_hal_can.c ****           can be used:
  45:Drivers/STM32F7xx_HAL_Driver/Src/stm32f7xx_hal_can.c ****             (++) HAL_CAN_AddTxMessage() to request transmission of a new
  46:Drivers/STM32F7xx_HAL_Driver/Src/stm32f7xx_hal_can.c ****                  message.
  47:Drivers/STM32F7xx_HAL_Driver/Src/stm32f7xx_hal_can.c ****             (++) HAL_CAN_AbortTxRequest() to abort transmission of a pending
  48:Drivers/STM32F7xx_HAL_Driver/Src/stm32f7xx_hal_can.c ****                  message.
  49:Drivers/STM32F7xx_HAL_Driver/Src/stm32f7xx_hal_can.c ****             (++) HAL_CAN_GetTxMailboxesFreeLevel() to get the number of free Tx
  50:Drivers/STM32F7xx_HAL_Driver/Src/stm32f7xx_hal_can.c ****                  mailboxes.
  51:Drivers/STM32F7xx_HAL_Driver/Src/stm32f7xx_hal_can.c ****             (++) HAL_CAN_IsTxMessagePending() to check if a message is pending
  52:Drivers/STM32F7xx_HAL_Driver/Src/stm32f7xx_hal_can.c ****                  in a Tx mailbox.
  53:Drivers/STM32F7xx_HAL_Driver/Src/stm32f7xx_hal_can.c ****             (++) HAL_CAN_GetTxTimestamp() to get the timestamp of Tx message
  54:Drivers/STM32F7xx_HAL_Driver/Src/stm32f7xx_hal_can.c ****                  sent, if time triggered communication mode is enabled.
  55:Drivers/STM32F7xx_HAL_Driver/Src/stm32f7xx_hal_can.c **** 
  56:Drivers/STM32F7xx_HAL_Driver/Src/stm32f7xx_hal_can.c ****       (#) When a message is received into the CAN Rx FIFOs, it can be retrieved
  57:Drivers/STM32F7xx_HAL_Driver/Src/stm32f7xx_hal_can.c ****           using the HAL_CAN_GetRxMessage() function. The function
  58:Drivers/STM32F7xx_HAL_Driver/Src/stm32f7xx_hal_can.c ****           HAL_CAN_GetRxFifoFillLevel() allows to know how many Rx message are
  59:Drivers/STM32F7xx_HAL_Driver/Src/stm32f7xx_hal_can.c ****           stored in the Rx Fifo.
  60:Drivers/STM32F7xx_HAL_Driver/Src/stm32f7xx_hal_can.c **** 
  61:Drivers/STM32F7xx_HAL_Driver/Src/stm32f7xx_hal_can.c ****       (#) Calling the HAL_CAN_Stop() function stops the CAN module.
  62:Drivers/STM32F7xx_HAL_Driver/Src/stm32f7xx_hal_can.c **** 
  63:Drivers/STM32F7xx_HAL_Driver/Src/stm32f7xx_hal_can.c ****       (#) The deinitialization is achieved with HAL_CAN_DeInit() function.
  64:Drivers/STM32F7xx_HAL_Driver/Src/stm32f7xx_hal_can.c **** 
  65:Drivers/STM32F7xx_HAL_Driver/Src/stm32f7xx_hal_can.c **** 
  66:Drivers/STM32F7xx_HAL_Driver/Src/stm32f7xx_hal_can.c ****       *** Polling mode operation ***
  67:Drivers/STM32F7xx_HAL_Driver/Src/stm32f7xx_hal_can.c ****       ==============================
  68:Drivers/STM32F7xx_HAL_Driver/Src/stm32f7xx_hal_can.c ****     [..]
  69:Drivers/STM32F7xx_HAL_Driver/Src/stm32f7xx_hal_can.c ****       (#) Reception:
  70:Drivers/STM32F7xx_HAL_Driver/Src/stm32f7xx_hal_can.c ****             (++) Monitor reception of message using HAL_CAN_GetRxFifoFillLevel()
  71:Drivers/STM32F7xx_HAL_Driver/Src/stm32f7xx_hal_can.c ****                  until at least one message is received.
  72:Drivers/STM32F7xx_HAL_Driver/Src/stm32f7xx_hal_can.c ****             (++) Then get the message using HAL_CAN_GetRxMessage().
  73:Drivers/STM32F7xx_HAL_Driver/Src/stm32f7xx_hal_can.c **** 
  74:Drivers/STM32F7xx_HAL_Driver/Src/stm32f7xx_hal_can.c ****       (#) Transmission:
  75:Drivers/STM32F7xx_HAL_Driver/Src/stm32f7xx_hal_can.c ****             (++) Monitor the Tx mailboxes availability until at least one Tx
  76:Drivers/STM32F7xx_HAL_Driver/Src/stm32f7xx_hal_can.c ****                  mailbox is free, using HAL_CAN_GetTxMailboxesFreeLevel().
  77:Drivers/STM32F7xx_HAL_Driver/Src/stm32f7xx_hal_can.c ****             (++) Then request transmission of a message using
  78:Drivers/STM32F7xx_HAL_Driver/Src/stm32f7xx_hal_can.c ****                  HAL_CAN_AddTxMessage().
  79:Drivers/STM32F7xx_HAL_Driver/Src/stm32f7xx_hal_can.c **** 
  80:Drivers/STM32F7xx_HAL_Driver/Src/stm32f7xx_hal_can.c **** 
  81:Drivers/STM32F7xx_HAL_Driver/Src/stm32f7xx_hal_can.c ****       *** Interrupt mode operation ***
  82:Drivers/STM32F7xx_HAL_Driver/Src/stm32f7xx_hal_can.c ****       ================================
  83:Drivers/STM32F7xx_HAL_Driver/Src/stm32f7xx_hal_can.c ****     [..]
  84:Drivers/STM32F7xx_HAL_Driver/Src/stm32f7xx_hal_can.c ****       (#) Notifications are activated using HAL_CAN_ActivateNotification()
  85:Drivers/STM32F7xx_HAL_Driver/Src/stm32f7xx_hal_can.c ****           function. Then, the process can be controlled through the
  86:Drivers/STM32F7xx_HAL_Driver/Src/stm32f7xx_hal_can.c ****           available user callbacks: HAL_CAN_xxxCallback(), using same APIs
  87:Drivers/STM32F7xx_HAL_Driver/Src/stm32f7xx_hal_can.c ****           HAL_CAN_GetRxMessage() and HAL_CAN_AddTxMessage().
  88:Drivers/STM32F7xx_HAL_Driver/Src/stm32f7xx_hal_can.c **** 
  89:Drivers/STM32F7xx_HAL_Driver/Src/stm32f7xx_hal_can.c ****       (#) Notifications can be deactivated using
ARM GAS  /var/folders/_f/lv_lzyzs40z4gsrf231fdcyh0000gn/T//ccB3MVWE.s 			page 3


  90:Drivers/STM32F7xx_HAL_Driver/Src/stm32f7xx_hal_can.c ****           HAL_CAN_DeactivateNotification() function.
  91:Drivers/STM32F7xx_HAL_Driver/Src/stm32f7xx_hal_can.c **** 
  92:Drivers/STM32F7xx_HAL_Driver/Src/stm32f7xx_hal_can.c ****       (#) Special care should be taken for CAN_IT_RX_FIFO0_MSG_PENDING and
  93:Drivers/STM32F7xx_HAL_Driver/Src/stm32f7xx_hal_can.c ****           CAN_IT_RX_FIFO1_MSG_PENDING notifications. These notifications trig
  94:Drivers/STM32F7xx_HAL_Driver/Src/stm32f7xx_hal_can.c ****           the callbacks HAL_CAN_RxFIFO0MsgPendingCallback() and
  95:Drivers/STM32F7xx_HAL_Driver/Src/stm32f7xx_hal_can.c ****           HAL_CAN_RxFIFO1MsgPendingCallback(). User has two possible options
  96:Drivers/STM32F7xx_HAL_Driver/Src/stm32f7xx_hal_can.c ****           here.
  97:Drivers/STM32F7xx_HAL_Driver/Src/stm32f7xx_hal_can.c ****             (++) Directly get the Rx message in the callback, using
  98:Drivers/STM32F7xx_HAL_Driver/Src/stm32f7xx_hal_can.c ****                  HAL_CAN_GetRxMessage().
  99:Drivers/STM32F7xx_HAL_Driver/Src/stm32f7xx_hal_can.c ****             (++) Or deactivate the notification in the callback without
 100:Drivers/STM32F7xx_HAL_Driver/Src/stm32f7xx_hal_can.c ****                  getting the Rx message. The Rx message can then be got later
 101:Drivers/STM32F7xx_HAL_Driver/Src/stm32f7xx_hal_can.c ****                  using HAL_CAN_GetRxMessage(). Once the Rx message have been
 102:Drivers/STM32F7xx_HAL_Driver/Src/stm32f7xx_hal_can.c ****                  read, the notification can be activated again.
 103:Drivers/STM32F7xx_HAL_Driver/Src/stm32f7xx_hal_can.c **** 
 104:Drivers/STM32F7xx_HAL_Driver/Src/stm32f7xx_hal_can.c **** 
 105:Drivers/STM32F7xx_HAL_Driver/Src/stm32f7xx_hal_can.c ****       *** Sleep mode ***
 106:Drivers/STM32F7xx_HAL_Driver/Src/stm32f7xx_hal_can.c ****       ==================
 107:Drivers/STM32F7xx_HAL_Driver/Src/stm32f7xx_hal_can.c ****     [..]
 108:Drivers/STM32F7xx_HAL_Driver/Src/stm32f7xx_hal_can.c ****       (#) The CAN peripheral can be put in sleep mode (low power), using
 109:Drivers/STM32F7xx_HAL_Driver/Src/stm32f7xx_hal_can.c ****           HAL_CAN_RequestSleep(). The sleep mode will be entered as soon as the
 110:Drivers/STM32F7xx_HAL_Driver/Src/stm32f7xx_hal_can.c ****           current CAN activity (transmission or reception of a CAN frame) will
 111:Drivers/STM32F7xx_HAL_Driver/Src/stm32f7xx_hal_can.c ****           be completed.
 112:Drivers/STM32F7xx_HAL_Driver/Src/stm32f7xx_hal_can.c **** 
 113:Drivers/STM32F7xx_HAL_Driver/Src/stm32f7xx_hal_can.c ****       (#) A notification can be activated to be informed when the sleep mode
 114:Drivers/STM32F7xx_HAL_Driver/Src/stm32f7xx_hal_can.c ****           will be entered.
 115:Drivers/STM32F7xx_HAL_Driver/Src/stm32f7xx_hal_can.c **** 
 116:Drivers/STM32F7xx_HAL_Driver/Src/stm32f7xx_hal_can.c ****       (#) It can be checked if the sleep mode is entered using
 117:Drivers/STM32F7xx_HAL_Driver/Src/stm32f7xx_hal_can.c ****           HAL_CAN_IsSleepActive().
 118:Drivers/STM32F7xx_HAL_Driver/Src/stm32f7xx_hal_can.c ****           Note that the CAN state (accessible from the API HAL_CAN_GetState())
 119:Drivers/STM32F7xx_HAL_Driver/Src/stm32f7xx_hal_can.c ****           is HAL_CAN_STATE_SLEEP_PENDING as soon as the sleep mode request is
 120:Drivers/STM32F7xx_HAL_Driver/Src/stm32f7xx_hal_can.c ****           submitted (the sleep mode is not yet entered), and become
 121:Drivers/STM32F7xx_HAL_Driver/Src/stm32f7xx_hal_can.c ****           HAL_CAN_STATE_SLEEP_ACTIVE when the sleep mode is effective.
 122:Drivers/STM32F7xx_HAL_Driver/Src/stm32f7xx_hal_can.c **** 
 123:Drivers/STM32F7xx_HAL_Driver/Src/stm32f7xx_hal_can.c ****       (#) The wake-up from sleep mode can be trigged by two ways:
 124:Drivers/STM32F7xx_HAL_Driver/Src/stm32f7xx_hal_can.c ****             (++) Using HAL_CAN_WakeUp(). When returning from this function,
 125:Drivers/STM32F7xx_HAL_Driver/Src/stm32f7xx_hal_can.c ****                  the sleep mode is exited (if return status is HAL_OK).
 126:Drivers/STM32F7xx_HAL_Driver/Src/stm32f7xx_hal_can.c ****             (++) When a start of Rx CAN frame is detected by the CAN peripheral,
 127:Drivers/STM32F7xx_HAL_Driver/Src/stm32f7xx_hal_can.c ****                  if automatic wake up mode is enabled.
 128:Drivers/STM32F7xx_HAL_Driver/Src/stm32f7xx_hal_can.c **** 
 129:Drivers/STM32F7xx_HAL_Driver/Src/stm32f7xx_hal_can.c ****   @endverbatim
 130:Drivers/STM32F7xx_HAL_Driver/Src/stm32f7xx_hal_can.c ****   ******************************************************************************
 131:Drivers/STM32F7xx_HAL_Driver/Src/stm32f7xx_hal_can.c ****   * @attention
 132:Drivers/STM32F7xx_HAL_Driver/Src/stm32f7xx_hal_can.c ****   *
 133:Drivers/STM32F7xx_HAL_Driver/Src/stm32f7xx_hal_can.c ****   * <h2><center>&copy; COPYRIGHT(c) 2017 STMicroelectronics</center></h2>
 134:Drivers/STM32F7xx_HAL_Driver/Src/stm32f7xx_hal_can.c ****   *
 135:Drivers/STM32F7xx_HAL_Driver/Src/stm32f7xx_hal_can.c ****   * Redistribution and use in source and binary forms, with or without modification,
 136:Drivers/STM32F7xx_HAL_Driver/Src/stm32f7xx_hal_can.c ****   * are permitted provided that the following conditions are met:
 137:Drivers/STM32F7xx_HAL_Driver/Src/stm32f7xx_hal_can.c ****   *   1. Redistributions of source code must retain the above copyright notice,
 138:Drivers/STM32F7xx_HAL_Driver/Src/stm32f7xx_hal_can.c ****   *      this list of conditions and the following disclaimer.
 139:Drivers/STM32F7xx_HAL_Driver/Src/stm32f7xx_hal_can.c ****   *   2. Redistributions in binary form must reproduce the above copyright notice,
 140:Drivers/STM32F7xx_HAL_Driver/Src/stm32f7xx_hal_can.c ****   *      this list of conditions and the following disclaimer in the documentation
 141:Drivers/STM32F7xx_HAL_Driver/Src/stm32f7xx_hal_can.c ****   *      and/or other materials provided with the distribution.
 142:Drivers/STM32F7xx_HAL_Driver/Src/stm32f7xx_hal_can.c ****   *   3. Neither the name of STMicroelectronics nor the names of its contributors
 143:Drivers/STM32F7xx_HAL_Driver/Src/stm32f7xx_hal_can.c ****   *      may be used to endorse or promote products derived from this software
 144:Drivers/STM32F7xx_HAL_Driver/Src/stm32f7xx_hal_can.c ****   *      without specific prior written permission.
 145:Drivers/STM32F7xx_HAL_Driver/Src/stm32f7xx_hal_can.c ****   *
 146:Drivers/STM32F7xx_HAL_Driver/Src/stm32f7xx_hal_can.c ****   * THIS SOFTWARE IS PROVIDED BY THE COPYRIGHT HOLDERS AND CONTRIBUTORS "AS IS"
ARM GAS  /var/folders/_f/lv_lzyzs40z4gsrf231fdcyh0000gn/T//ccB3MVWE.s 			page 4


 147:Drivers/STM32F7xx_HAL_Driver/Src/stm32f7xx_hal_can.c ****   * AND ANY EXPRESS OR IMPLIED WARRANTIES, INCLUDING, BUT NOT LIMITED TO, THE
 148:Drivers/STM32F7xx_HAL_Driver/Src/stm32f7xx_hal_can.c ****   * IMPLIED WARRANTIES OF MERCHANTABILITY AND FITNESS FOR A PARTICULAR PURPOSE ARE
 149:Drivers/STM32F7xx_HAL_Driver/Src/stm32f7xx_hal_can.c ****   * DISCLAIMED. IN NO EVENT SHALL THE COPYRIGHT HOLDER OR CONTRIBUTORS BE LIABLE
 150:Drivers/STM32F7xx_HAL_Driver/Src/stm32f7xx_hal_can.c ****   * FOR ANY DIRECT, INDIRECT, INCIDENTAL, SPECIAL, EXEMPLARY, OR CONSEQUENTIAL
 151:Drivers/STM32F7xx_HAL_Driver/Src/stm32f7xx_hal_can.c ****   * DAMAGES (INCLUDING, BUT NOT LIMITED TO, PROCUREMENT OF SUBSTITUTE GOODS OR
 152:Drivers/STM32F7xx_HAL_Driver/Src/stm32f7xx_hal_can.c ****   * SERVICES; LOSS OF USE, DATA, OR PROFITS; OR BUSINESS INTERRUPTION) HOWEVER
 153:Drivers/STM32F7xx_HAL_Driver/Src/stm32f7xx_hal_can.c ****   * CAUSED AND ON ANY THEORY OF LIABILITY, WHETHER IN CONTRACT, STRICT LIABILITY,
 154:Drivers/STM32F7xx_HAL_Driver/Src/stm32f7xx_hal_can.c ****   * OR TORT (INCLUDING NEGLIGENCE OR OTHERWISE) ARISING IN ANY WAY OUT OF THE USE
 155:Drivers/STM32F7xx_HAL_Driver/Src/stm32f7xx_hal_can.c ****   * OF THIS SOFTWARE, EVEN IF ADVISED OF THE POSSIBILITY OF SUCH DAMAGE.
 156:Drivers/STM32F7xx_HAL_Driver/Src/stm32f7xx_hal_can.c ****   *
 157:Drivers/STM32F7xx_HAL_Driver/Src/stm32f7xx_hal_can.c ****   ******************************************************************************
 158:Drivers/STM32F7xx_HAL_Driver/Src/stm32f7xx_hal_can.c ****   */
 159:Drivers/STM32F7xx_HAL_Driver/Src/stm32f7xx_hal_can.c **** 
 160:Drivers/STM32F7xx_HAL_Driver/Src/stm32f7xx_hal_can.c **** /* Includes ------------------------------------------------------------------*/
 161:Drivers/STM32F7xx_HAL_Driver/Src/stm32f7xx_hal_can.c **** #include "stm32f7xx_hal.h"
 162:Drivers/STM32F7xx_HAL_Driver/Src/stm32f7xx_hal_can.c **** 
 163:Drivers/STM32F7xx_HAL_Driver/Src/stm32f7xx_hal_can.c **** /** @addtogroup STM32F7xx_HAL_Driver
 164:Drivers/STM32F7xx_HAL_Driver/Src/stm32f7xx_hal_can.c ****   * @{
 165:Drivers/STM32F7xx_HAL_Driver/Src/stm32f7xx_hal_can.c ****   */
 166:Drivers/STM32F7xx_HAL_Driver/Src/stm32f7xx_hal_can.c **** 
 167:Drivers/STM32F7xx_HAL_Driver/Src/stm32f7xx_hal_can.c **** #if defined(CAN1)
 168:Drivers/STM32F7xx_HAL_Driver/Src/stm32f7xx_hal_can.c **** 
 169:Drivers/STM32F7xx_HAL_Driver/Src/stm32f7xx_hal_can.c **** /** @defgroup CAN CAN
 170:Drivers/STM32F7xx_HAL_Driver/Src/stm32f7xx_hal_can.c ****   * @brief CAN driver modules
 171:Drivers/STM32F7xx_HAL_Driver/Src/stm32f7xx_hal_can.c ****   * @{
 172:Drivers/STM32F7xx_HAL_Driver/Src/stm32f7xx_hal_can.c ****   */
 173:Drivers/STM32F7xx_HAL_Driver/Src/stm32f7xx_hal_can.c **** 
 174:Drivers/STM32F7xx_HAL_Driver/Src/stm32f7xx_hal_can.c **** #ifdef HAL_CAN_MODULE_ENABLED
 175:Drivers/STM32F7xx_HAL_Driver/Src/stm32f7xx_hal_can.c **** 
 176:Drivers/STM32F7xx_HAL_Driver/Src/stm32f7xx_hal_can.c **** #ifdef HAL_CAN_LEGACY_MODULE_ENABLED
 177:Drivers/STM32F7xx_HAL_Driver/Src/stm32f7xx_hal_can.c ****   #error "The CAN driver cannot be used with its legacy, Please enable only one CAN module at once"
 178:Drivers/STM32F7xx_HAL_Driver/Src/stm32f7xx_hal_can.c **** #endif
 179:Drivers/STM32F7xx_HAL_Driver/Src/stm32f7xx_hal_can.c **** 
 180:Drivers/STM32F7xx_HAL_Driver/Src/stm32f7xx_hal_can.c **** /* Private typedef -----------------------------------------------------------*/
 181:Drivers/STM32F7xx_HAL_Driver/Src/stm32f7xx_hal_can.c **** /* Private define ------------------------------------------------------------*/
 182:Drivers/STM32F7xx_HAL_Driver/Src/stm32f7xx_hal_can.c **** /** @defgroup CAN_Private_Constants CAN Private Constants
 183:Drivers/STM32F7xx_HAL_Driver/Src/stm32f7xx_hal_can.c ****   * @{
 184:Drivers/STM32F7xx_HAL_Driver/Src/stm32f7xx_hal_can.c ****   */
 185:Drivers/STM32F7xx_HAL_Driver/Src/stm32f7xx_hal_can.c **** #define CAN_TIMEOUT_VALUE 10U
 186:Drivers/STM32F7xx_HAL_Driver/Src/stm32f7xx_hal_can.c **** /**
 187:Drivers/STM32F7xx_HAL_Driver/Src/stm32f7xx_hal_can.c ****   * @}
 188:Drivers/STM32F7xx_HAL_Driver/Src/stm32f7xx_hal_can.c ****   */
 189:Drivers/STM32F7xx_HAL_Driver/Src/stm32f7xx_hal_can.c **** /* Private macro -------------------------------------------------------------*/
 190:Drivers/STM32F7xx_HAL_Driver/Src/stm32f7xx_hal_can.c **** /* Private variables ---------------------------------------------------------*/
 191:Drivers/STM32F7xx_HAL_Driver/Src/stm32f7xx_hal_can.c **** /* Private function prototypes -----------------------------------------------*/
 192:Drivers/STM32F7xx_HAL_Driver/Src/stm32f7xx_hal_can.c **** /* Exported functions --------------------------------------------------------*/
 193:Drivers/STM32F7xx_HAL_Driver/Src/stm32f7xx_hal_can.c **** 
 194:Drivers/STM32F7xx_HAL_Driver/Src/stm32f7xx_hal_can.c **** /** @defgroup CAN_Exported_Functions CAN Exported Functions
 195:Drivers/STM32F7xx_HAL_Driver/Src/stm32f7xx_hal_can.c ****   * @{
 196:Drivers/STM32F7xx_HAL_Driver/Src/stm32f7xx_hal_can.c ****   */
 197:Drivers/STM32F7xx_HAL_Driver/Src/stm32f7xx_hal_can.c **** 
 198:Drivers/STM32F7xx_HAL_Driver/Src/stm32f7xx_hal_can.c **** /** @defgroup CAN_Exported_Functions_Group1 Initialization and de-initialization functions
 199:Drivers/STM32F7xx_HAL_Driver/Src/stm32f7xx_hal_can.c ****  *  @brief    Initialization and Configuration functions
 200:Drivers/STM32F7xx_HAL_Driver/Src/stm32f7xx_hal_can.c ****  *
 201:Drivers/STM32F7xx_HAL_Driver/Src/stm32f7xx_hal_can.c **** @verbatim
 202:Drivers/STM32F7xx_HAL_Driver/Src/stm32f7xx_hal_can.c ****   ==============================================================================
 203:Drivers/STM32F7xx_HAL_Driver/Src/stm32f7xx_hal_can.c ****               ##### Initialization and de-initialization functions #####
ARM GAS  /var/folders/_f/lv_lzyzs40z4gsrf231fdcyh0000gn/T//ccB3MVWE.s 			page 5


 204:Drivers/STM32F7xx_HAL_Driver/Src/stm32f7xx_hal_can.c ****   ==============================================================================
 205:Drivers/STM32F7xx_HAL_Driver/Src/stm32f7xx_hal_can.c ****     [..]  This section provides functions allowing to:
 206:Drivers/STM32F7xx_HAL_Driver/Src/stm32f7xx_hal_can.c ****       (+) HAL_CAN_Init                       : Initialize and configure the CAN.
 207:Drivers/STM32F7xx_HAL_Driver/Src/stm32f7xx_hal_can.c ****       (+) HAL_CAN_DeInit                     : De-initialize the CAN.
 208:Drivers/STM32F7xx_HAL_Driver/Src/stm32f7xx_hal_can.c ****       (+) HAL_CAN_MspInit                    : Initialize the CAN MSP.
 209:Drivers/STM32F7xx_HAL_Driver/Src/stm32f7xx_hal_can.c ****       (+) HAL_CAN_MspDeInit                  : DeInitialize the CAN MSP.
 210:Drivers/STM32F7xx_HAL_Driver/Src/stm32f7xx_hal_can.c **** 
 211:Drivers/STM32F7xx_HAL_Driver/Src/stm32f7xx_hal_can.c **** @endverbatim
 212:Drivers/STM32F7xx_HAL_Driver/Src/stm32f7xx_hal_can.c ****   * @{
 213:Drivers/STM32F7xx_HAL_Driver/Src/stm32f7xx_hal_can.c ****   */
 214:Drivers/STM32F7xx_HAL_Driver/Src/stm32f7xx_hal_can.c **** 
 215:Drivers/STM32F7xx_HAL_Driver/Src/stm32f7xx_hal_can.c **** /**
 216:Drivers/STM32F7xx_HAL_Driver/Src/stm32f7xx_hal_can.c ****   * @brief  Initializes the CAN peripheral according to the specified
 217:Drivers/STM32F7xx_HAL_Driver/Src/stm32f7xx_hal_can.c ****   *         parameters in the CAN_InitStruct.
 218:Drivers/STM32F7xx_HAL_Driver/Src/stm32f7xx_hal_can.c ****   * @param  hcan pointer to a CAN_HandleTypeDef structure that contains
 219:Drivers/STM32F7xx_HAL_Driver/Src/stm32f7xx_hal_can.c ****   *         the configuration information for the specified CAN.
 220:Drivers/STM32F7xx_HAL_Driver/Src/stm32f7xx_hal_can.c ****   * @retval HAL status
 221:Drivers/STM32F7xx_HAL_Driver/Src/stm32f7xx_hal_can.c ****   */
 222:Drivers/STM32F7xx_HAL_Driver/Src/stm32f7xx_hal_can.c **** HAL_StatusTypeDef HAL_CAN_Init(CAN_HandleTypeDef *hcan)
 223:Drivers/STM32F7xx_HAL_Driver/Src/stm32f7xx_hal_can.c **** {
 224:Drivers/STM32F7xx_HAL_Driver/Src/stm32f7xx_hal_can.c ****   uint32_t tickstart = 0U;
 225:Drivers/STM32F7xx_HAL_Driver/Src/stm32f7xx_hal_can.c **** 
 226:Drivers/STM32F7xx_HAL_Driver/Src/stm32f7xx_hal_can.c ****   /* Check CAN handle */
 227:Drivers/STM32F7xx_HAL_Driver/Src/stm32f7xx_hal_can.c ****   if (hcan == NULL)
 228:Drivers/STM32F7xx_HAL_Driver/Src/stm32f7xx_hal_can.c ****   {
 229:Drivers/STM32F7xx_HAL_Driver/Src/stm32f7xx_hal_can.c ****     return HAL_ERROR;
 230:Drivers/STM32F7xx_HAL_Driver/Src/stm32f7xx_hal_can.c ****   }
 231:Drivers/STM32F7xx_HAL_Driver/Src/stm32f7xx_hal_can.c **** 
 232:Drivers/STM32F7xx_HAL_Driver/Src/stm32f7xx_hal_can.c ****   /* Check the parameters */
 233:Drivers/STM32F7xx_HAL_Driver/Src/stm32f7xx_hal_can.c ****   assert_param(IS_CAN_ALL_INSTANCE(hcan->Instance));
 234:Drivers/STM32F7xx_HAL_Driver/Src/stm32f7xx_hal_can.c ****   assert_param(IS_FUNCTIONAL_STATE(hcan->Init.TimeTriggeredMode));
 235:Drivers/STM32F7xx_HAL_Driver/Src/stm32f7xx_hal_can.c ****   assert_param(IS_FUNCTIONAL_STATE(hcan->Init.AutoBusOff));
 236:Drivers/STM32F7xx_HAL_Driver/Src/stm32f7xx_hal_can.c ****   assert_param(IS_FUNCTIONAL_STATE(hcan->Init.AutoWakeUp));
 237:Drivers/STM32F7xx_HAL_Driver/Src/stm32f7xx_hal_can.c ****   assert_param(IS_FUNCTIONAL_STATE(hcan->Init.AutoRetransmission));
 238:Drivers/STM32F7xx_HAL_Driver/Src/stm32f7xx_hal_can.c ****   assert_param(IS_FUNCTIONAL_STATE(hcan->Init.ReceiveFifoLocked));
 239:Drivers/STM32F7xx_HAL_Driver/Src/stm32f7xx_hal_can.c ****   assert_param(IS_FUNCTIONAL_STATE(hcan->Init.TransmitFifoPriority));
 240:Drivers/STM32F7xx_HAL_Driver/Src/stm32f7xx_hal_can.c ****   assert_param(IS_CAN_MODE(hcan->Init.Mode));
 241:Drivers/STM32F7xx_HAL_Driver/Src/stm32f7xx_hal_can.c ****   assert_param(IS_CAN_SJW(hcan->Init.SyncJumpWidth));
 242:Drivers/STM32F7xx_HAL_Driver/Src/stm32f7xx_hal_can.c ****   assert_param(IS_CAN_BS1(hcan->Init.TimeSeg1));
 243:Drivers/STM32F7xx_HAL_Driver/Src/stm32f7xx_hal_can.c ****   assert_param(IS_CAN_BS2(hcan->Init.TimeSeg2));
 244:Drivers/STM32F7xx_HAL_Driver/Src/stm32f7xx_hal_can.c ****   assert_param(IS_CAN_PRESCALER(hcan->Init.Prescaler));
 245:Drivers/STM32F7xx_HAL_Driver/Src/stm32f7xx_hal_can.c **** 
 246:Drivers/STM32F7xx_HAL_Driver/Src/stm32f7xx_hal_can.c ****   if (hcan->State == HAL_CAN_STATE_RESET)
 247:Drivers/STM32F7xx_HAL_Driver/Src/stm32f7xx_hal_can.c ****   {
 248:Drivers/STM32F7xx_HAL_Driver/Src/stm32f7xx_hal_can.c ****     /* Init the low level hardware: CLOCK, NVIC */
 249:Drivers/STM32F7xx_HAL_Driver/Src/stm32f7xx_hal_can.c ****     HAL_CAN_MspInit(hcan);
 250:Drivers/STM32F7xx_HAL_Driver/Src/stm32f7xx_hal_can.c ****   }
 251:Drivers/STM32F7xx_HAL_Driver/Src/stm32f7xx_hal_can.c **** 
 252:Drivers/STM32F7xx_HAL_Driver/Src/stm32f7xx_hal_can.c ****   /* Exit from sleep mode */
 253:Drivers/STM32F7xx_HAL_Driver/Src/stm32f7xx_hal_can.c ****   CLEAR_BIT(hcan->Instance->MCR, CAN_MCR_SLEEP);
 254:Drivers/STM32F7xx_HAL_Driver/Src/stm32f7xx_hal_can.c **** 
 255:Drivers/STM32F7xx_HAL_Driver/Src/stm32f7xx_hal_can.c ****   /* Get tick */
 256:Drivers/STM32F7xx_HAL_Driver/Src/stm32f7xx_hal_can.c ****   tickstart = HAL_GetTick();
 257:Drivers/STM32F7xx_HAL_Driver/Src/stm32f7xx_hal_can.c **** 
 258:Drivers/STM32F7xx_HAL_Driver/Src/stm32f7xx_hal_can.c ****   /* Check Sleep mode leave acknowledge */
 259:Drivers/STM32F7xx_HAL_Driver/Src/stm32f7xx_hal_can.c ****   while ((hcan->Instance->MSR & CAN_MSR_SLAK) != RESET)
 260:Drivers/STM32F7xx_HAL_Driver/Src/stm32f7xx_hal_can.c ****   {
ARM GAS  /var/folders/_f/lv_lzyzs40z4gsrf231fdcyh0000gn/T//ccB3MVWE.s 			page 6


 261:Drivers/STM32F7xx_HAL_Driver/Src/stm32f7xx_hal_can.c ****     if ((HAL_GetTick() - tickstart) > CAN_TIMEOUT_VALUE)
 262:Drivers/STM32F7xx_HAL_Driver/Src/stm32f7xx_hal_can.c ****     {
 263:Drivers/STM32F7xx_HAL_Driver/Src/stm32f7xx_hal_can.c ****       /* Update error code */
 264:Drivers/STM32F7xx_HAL_Driver/Src/stm32f7xx_hal_can.c ****       hcan->ErrorCode |= HAL_CAN_ERROR_TIMEOUT;
 265:Drivers/STM32F7xx_HAL_Driver/Src/stm32f7xx_hal_can.c **** 
 266:Drivers/STM32F7xx_HAL_Driver/Src/stm32f7xx_hal_can.c ****       /* Change CAN state */
 267:Drivers/STM32F7xx_HAL_Driver/Src/stm32f7xx_hal_can.c ****       hcan->State = HAL_CAN_STATE_ERROR;
 268:Drivers/STM32F7xx_HAL_Driver/Src/stm32f7xx_hal_can.c **** 
 269:Drivers/STM32F7xx_HAL_Driver/Src/stm32f7xx_hal_can.c ****       return HAL_ERROR;
 270:Drivers/STM32F7xx_HAL_Driver/Src/stm32f7xx_hal_can.c ****     }
 271:Drivers/STM32F7xx_HAL_Driver/Src/stm32f7xx_hal_can.c ****   }
 272:Drivers/STM32F7xx_HAL_Driver/Src/stm32f7xx_hal_can.c **** 
 273:Drivers/STM32F7xx_HAL_Driver/Src/stm32f7xx_hal_can.c ****   /* Request initialisation */
 274:Drivers/STM32F7xx_HAL_Driver/Src/stm32f7xx_hal_can.c ****   SET_BIT(hcan->Instance->MCR, CAN_MCR_INRQ);
 275:Drivers/STM32F7xx_HAL_Driver/Src/stm32f7xx_hal_can.c **** 
 276:Drivers/STM32F7xx_HAL_Driver/Src/stm32f7xx_hal_can.c ****   /* Get tick */
 277:Drivers/STM32F7xx_HAL_Driver/Src/stm32f7xx_hal_can.c ****   tickstart = HAL_GetTick();
 278:Drivers/STM32F7xx_HAL_Driver/Src/stm32f7xx_hal_can.c **** 
 279:Drivers/STM32F7xx_HAL_Driver/Src/stm32f7xx_hal_can.c ****   /* Wait initialisation acknowledge */
 280:Drivers/STM32F7xx_HAL_Driver/Src/stm32f7xx_hal_can.c ****   while ((hcan->Instance->MSR & CAN_MSR_INAK) == RESET)
 281:Drivers/STM32F7xx_HAL_Driver/Src/stm32f7xx_hal_can.c ****   {
 282:Drivers/STM32F7xx_HAL_Driver/Src/stm32f7xx_hal_can.c ****     if ((HAL_GetTick() - tickstart) > CAN_TIMEOUT_VALUE)
 283:Drivers/STM32F7xx_HAL_Driver/Src/stm32f7xx_hal_can.c ****     {
 284:Drivers/STM32F7xx_HAL_Driver/Src/stm32f7xx_hal_can.c ****       /* Update error code */
 285:Drivers/STM32F7xx_HAL_Driver/Src/stm32f7xx_hal_can.c ****       hcan->ErrorCode |= HAL_CAN_ERROR_TIMEOUT;
 286:Drivers/STM32F7xx_HAL_Driver/Src/stm32f7xx_hal_can.c **** 
 287:Drivers/STM32F7xx_HAL_Driver/Src/stm32f7xx_hal_can.c ****       /* Change CAN state */
 288:Drivers/STM32F7xx_HAL_Driver/Src/stm32f7xx_hal_can.c ****       hcan->State = HAL_CAN_STATE_ERROR;
 289:Drivers/STM32F7xx_HAL_Driver/Src/stm32f7xx_hal_can.c **** 
 290:Drivers/STM32F7xx_HAL_Driver/Src/stm32f7xx_hal_can.c ****       return HAL_ERROR;
 291:Drivers/STM32F7xx_HAL_Driver/Src/stm32f7xx_hal_can.c ****     }
 292:Drivers/STM32F7xx_HAL_Driver/Src/stm32f7xx_hal_can.c ****   }
 293:Drivers/STM32F7xx_HAL_Driver/Src/stm32f7xx_hal_can.c **** 
 294:Drivers/STM32F7xx_HAL_Driver/Src/stm32f7xx_hal_can.c ****   /* Set the time triggered communication mode */
 295:Drivers/STM32F7xx_HAL_Driver/Src/stm32f7xx_hal_can.c ****   if (hcan->Init.TimeTriggeredMode == ENABLE)
 296:Drivers/STM32F7xx_HAL_Driver/Src/stm32f7xx_hal_can.c ****   {
 297:Drivers/STM32F7xx_HAL_Driver/Src/stm32f7xx_hal_can.c ****     SET_BIT(hcan->Instance->MCR, CAN_MCR_TTCM);
 298:Drivers/STM32F7xx_HAL_Driver/Src/stm32f7xx_hal_can.c ****   }
 299:Drivers/STM32F7xx_HAL_Driver/Src/stm32f7xx_hal_can.c ****   else
 300:Drivers/STM32F7xx_HAL_Driver/Src/stm32f7xx_hal_can.c ****   {
 301:Drivers/STM32F7xx_HAL_Driver/Src/stm32f7xx_hal_can.c ****     CLEAR_BIT(hcan->Instance->MCR, CAN_MCR_TTCM);
 302:Drivers/STM32F7xx_HAL_Driver/Src/stm32f7xx_hal_can.c ****   }
 303:Drivers/STM32F7xx_HAL_Driver/Src/stm32f7xx_hal_can.c **** 
 304:Drivers/STM32F7xx_HAL_Driver/Src/stm32f7xx_hal_can.c ****   /* Set the automatic bus-off management */
 305:Drivers/STM32F7xx_HAL_Driver/Src/stm32f7xx_hal_can.c ****   if (hcan->Init.AutoBusOff == ENABLE)
 306:Drivers/STM32F7xx_HAL_Driver/Src/stm32f7xx_hal_can.c ****   {
 307:Drivers/STM32F7xx_HAL_Driver/Src/stm32f7xx_hal_can.c ****     SET_BIT(hcan->Instance->MCR, CAN_MCR_ABOM);
 308:Drivers/STM32F7xx_HAL_Driver/Src/stm32f7xx_hal_can.c ****   }
 309:Drivers/STM32F7xx_HAL_Driver/Src/stm32f7xx_hal_can.c ****   else
 310:Drivers/STM32F7xx_HAL_Driver/Src/stm32f7xx_hal_can.c ****   {
 311:Drivers/STM32F7xx_HAL_Driver/Src/stm32f7xx_hal_can.c ****     CLEAR_BIT(hcan->Instance->MCR, CAN_MCR_ABOM);
 312:Drivers/STM32F7xx_HAL_Driver/Src/stm32f7xx_hal_can.c ****   }
 313:Drivers/STM32F7xx_HAL_Driver/Src/stm32f7xx_hal_can.c **** 
 314:Drivers/STM32F7xx_HAL_Driver/Src/stm32f7xx_hal_can.c ****   /* Set the automatic wake-up mode */
 315:Drivers/STM32F7xx_HAL_Driver/Src/stm32f7xx_hal_can.c ****   if (hcan->Init.AutoWakeUp == ENABLE)
 316:Drivers/STM32F7xx_HAL_Driver/Src/stm32f7xx_hal_can.c ****   {
 317:Drivers/STM32F7xx_HAL_Driver/Src/stm32f7xx_hal_can.c ****     SET_BIT(hcan->Instance->MCR, CAN_MCR_AWUM);
ARM GAS  /var/folders/_f/lv_lzyzs40z4gsrf231fdcyh0000gn/T//ccB3MVWE.s 			page 7


 318:Drivers/STM32F7xx_HAL_Driver/Src/stm32f7xx_hal_can.c ****   }
 319:Drivers/STM32F7xx_HAL_Driver/Src/stm32f7xx_hal_can.c ****   else
 320:Drivers/STM32F7xx_HAL_Driver/Src/stm32f7xx_hal_can.c ****   {
 321:Drivers/STM32F7xx_HAL_Driver/Src/stm32f7xx_hal_can.c ****     CLEAR_BIT(hcan->Instance->MCR, CAN_MCR_AWUM);
 322:Drivers/STM32F7xx_HAL_Driver/Src/stm32f7xx_hal_can.c ****   }
 323:Drivers/STM32F7xx_HAL_Driver/Src/stm32f7xx_hal_can.c **** 
 324:Drivers/STM32F7xx_HAL_Driver/Src/stm32f7xx_hal_can.c ****   /* Set the automatic retransmission */
 325:Drivers/STM32F7xx_HAL_Driver/Src/stm32f7xx_hal_can.c ****   if (hcan->Init.AutoRetransmission == ENABLE)
 326:Drivers/STM32F7xx_HAL_Driver/Src/stm32f7xx_hal_can.c ****   {
 327:Drivers/STM32F7xx_HAL_Driver/Src/stm32f7xx_hal_can.c ****     CLEAR_BIT(hcan->Instance->MCR, CAN_MCR_NART);
 328:Drivers/STM32F7xx_HAL_Driver/Src/stm32f7xx_hal_can.c ****   }
 329:Drivers/STM32F7xx_HAL_Driver/Src/stm32f7xx_hal_can.c ****   else
 330:Drivers/STM32F7xx_HAL_Driver/Src/stm32f7xx_hal_can.c ****   {
 331:Drivers/STM32F7xx_HAL_Driver/Src/stm32f7xx_hal_can.c ****     SET_BIT(hcan->Instance->MCR, CAN_MCR_NART);
 332:Drivers/STM32F7xx_HAL_Driver/Src/stm32f7xx_hal_can.c ****   }
 333:Drivers/STM32F7xx_HAL_Driver/Src/stm32f7xx_hal_can.c **** 
 334:Drivers/STM32F7xx_HAL_Driver/Src/stm32f7xx_hal_can.c ****   /* Set the receive FIFO locked mode */
 335:Drivers/STM32F7xx_HAL_Driver/Src/stm32f7xx_hal_can.c ****   if (hcan->Init.ReceiveFifoLocked == ENABLE)
 336:Drivers/STM32F7xx_HAL_Driver/Src/stm32f7xx_hal_can.c ****   {
 337:Drivers/STM32F7xx_HAL_Driver/Src/stm32f7xx_hal_can.c ****     SET_BIT(hcan->Instance->MCR, CAN_MCR_RFLM);
 338:Drivers/STM32F7xx_HAL_Driver/Src/stm32f7xx_hal_can.c ****   }
 339:Drivers/STM32F7xx_HAL_Driver/Src/stm32f7xx_hal_can.c ****   else
 340:Drivers/STM32F7xx_HAL_Driver/Src/stm32f7xx_hal_can.c ****   {
 341:Drivers/STM32F7xx_HAL_Driver/Src/stm32f7xx_hal_can.c ****     CLEAR_BIT(hcan->Instance->MCR, CAN_MCR_RFLM);
 342:Drivers/STM32F7xx_HAL_Driver/Src/stm32f7xx_hal_can.c ****   }
 343:Drivers/STM32F7xx_HAL_Driver/Src/stm32f7xx_hal_can.c **** 
 344:Drivers/STM32F7xx_HAL_Driver/Src/stm32f7xx_hal_can.c ****   /* Set the transmit FIFO priority */
 345:Drivers/STM32F7xx_HAL_Driver/Src/stm32f7xx_hal_can.c ****   if (hcan->Init.TransmitFifoPriority == ENABLE)
 346:Drivers/STM32F7xx_HAL_Driver/Src/stm32f7xx_hal_can.c ****   {
 347:Drivers/STM32F7xx_HAL_Driver/Src/stm32f7xx_hal_can.c ****     SET_BIT(hcan->Instance->MCR, CAN_MCR_TXFP);
 348:Drivers/STM32F7xx_HAL_Driver/Src/stm32f7xx_hal_can.c ****   }
 349:Drivers/STM32F7xx_HAL_Driver/Src/stm32f7xx_hal_can.c ****   else
 350:Drivers/STM32F7xx_HAL_Driver/Src/stm32f7xx_hal_can.c ****   {
 351:Drivers/STM32F7xx_HAL_Driver/Src/stm32f7xx_hal_can.c ****     CLEAR_BIT(hcan->Instance->MCR, CAN_MCR_TXFP);
 352:Drivers/STM32F7xx_HAL_Driver/Src/stm32f7xx_hal_can.c ****   }
 353:Drivers/STM32F7xx_HAL_Driver/Src/stm32f7xx_hal_can.c **** 
 354:Drivers/STM32F7xx_HAL_Driver/Src/stm32f7xx_hal_can.c ****   /* Set the bit timing register */
 355:Drivers/STM32F7xx_HAL_Driver/Src/stm32f7xx_hal_can.c ****   WRITE_REG(hcan->Instance->BTR, (uint32_t)(hcan->Init.Mode           |
 356:Drivers/STM32F7xx_HAL_Driver/Src/stm32f7xx_hal_can.c ****                                             hcan->Init.SyncJumpWidth  |
 357:Drivers/STM32F7xx_HAL_Driver/Src/stm32f7xx_hal_can.c ****                                             hcan->Init.TimeSeg1       |
 358:Drivers/STM32F7xx_HAL_Driver/Src/stm32f7xx_hal_can.c ****                                             hcan->Init.TimeSeg2       |
 359:Drivers/STM32F7xx_HAL_Driver/Src/stm32f7xx_hal_can.c ****                                             (hcan->Init.Prescaler - 1U)));
 360:Drivers/STM32F7xx_HAL_Driver/Src/stm32f7xx_hal_can.c **** 
 361:Drivers/STM32F7xx_HAL_Driver/Src/stm32f7xx_hal_can.c ****   /* Initialize the error code */
 362:Drivers/STM32F7xx_HAL_Driver/Src/stm32f7xx_hal_can.c ****   hcan->ErrorCode = HAL_CAN_ERROR_NONE;
 363:Drivers/STM32F7xx_HAL_Driver/Src/stm32f7xx_hal_can.c **** 
 364:Drivers/STM32F7xx_HAL_Driver/Src/stm32f7xx_hal_can.c ****   /* Initialize the CAN state */
 365:Drivers/STM32F7xx_HAL_Driver/Src/stm32f7xx_hal_can.c ****   hcan->State = HAL_CAN_STATE_READY;
 366:Drivers/STM32F7xx_HAL_Driver/Src/stm32f7xx_hal_can.c **** 
 367:Drivers/STM32F7xx_HAL_Driver/Src/stm32f7xx_hal_can.c ****   /* Return function status */
 368:Drivers/STM32F7xx_HAL_Driver/Src/stm32f7xx_hal_can.c ****   return HAL_OK;
 369:Drivers/STM32F7xx_HAL_Driver/Src/stm32f7xx_hal_can.c **** }
 370:Drivers/STM32F7xx_HAL_Driver/Src/stm32f7xx_hal_can.c **** 
 371:Drivers/STM32F7xx_HAL_Driver/Src/stm32f7xx_hal_can.c **** /**
 372:Drivers/STM32F7xx_HAL_Driver/Src/stm32f7xx_hal_can.c ****   * @brief  Deinitializes the CAN peripheral registers to their default
 373:Drivers/STM32F7xx_HAL_Driver/Src/stm32f7xx_hal_can.c ****   *         reset values.
 374:Drivers/STM32F7xx_HAL_Driver/Src/stm32f7xx_hal_can.c ****   * @param  hcan pointer to a CAN_HandleTypeDef structure that contains
ARM GAS  /var/folders/_f/lv_lzyzs40z4gsrf231fdcyh0000gn/T//ccB3MVWE.s 			page 8


 375:Drivers/STM32F7xx_HAL_Driver/Src/stm32f7xx_hal_can.c ****   *         the configuration information for the specified CAN.
 376:Drivers/STM32F7xx_HAL_Driver/Src/stm32f7xx_hal_can.c ****   * @retval HAL status
 377:Drivers/STM32F7xx_HAL_Driver/Src/stm32f7xx_hal_can.c ****   */
 378:Drivers/STM32F7xx_HAL_Driver/Src/stm32f7xx_hal_can.c **** HAL_StatusTypeDef HAL_CAN_DeInit(CAN_HandleTypeDef *hcan)
 379:Drivers/STM32F7xx_HAL_Driver/Src/stm32f7xx_hal_can.c **** {
 380:Drivers/STM32F7xx_HAL_Driver/Src/stm32f7xx_hal_can.c ****   /* Check CAN handle */
 381:Drivers/STM32F7xx_HAL_Driver/Src/stm32f7xx_hal_can.c ****   if (hcan == NULL)
 382:Drivers/STM32F7xx_HAL_Driver/Src/stm32f7xx_hal_can.c ****   {
 383:Drivers/STM32F7xx_HAL_Driver/Src/stm32f7xx_hal_can.c ****     return HAL_ERROR;
 384:Drivers/STM32F7xx_HAL_Driver/Src/stm32f7xx_hal_can.c ****   }
 385:Drivers/STM32F7xx_HAL_Driver/Src/stm32f7xx_hal_can.c **** 
 386:Drivers/STM32F7xx_HAL_Driver/Src/stm32f7xx_hal_can.c ****   /* Check the parameters */
 387:Drivers/STM32F7xx_HAL_Driver/Src/stm32f7xx_hal_can.c ****   assert_param(IS_CAN_ALL_INSTANCE(hcan->Instance));
 388:Drivers/STM32F7xx_HAL_Driver/Src/stm32f7xx_hal_can.c **** 
 389:Drivers/STM32F7xx_HAL_Driver/Src/stm32f7xx_hal_can.c ****   /* Stop the CAN module */
 390:Drivers/STM32F7xx_HAL_Driver/Src/stm32f7xx_hal_can.c ****   HAL_CAN_Stop(hcan);
 391:Drivers/STM32F7xx_HAL_Driver/Src/stm32f7xx_hal_can.c **** 
 392:Drivers/STM32F7xx_HAL_Driver/Src/stm32f7xx_hal_can.c ****   /* DeInit the low level hardware: CLOCK, NVIC */
 393:Drivers/STM32F7xx_HAL_Driver/Src/stm32f7xx_hal_can.c ****   HAL_CAN_MspDeInit(hcan);
 394:Drivers/STM32F7xx_HAL_Driver/Src/stm32f7xx_hal_can.c **** 
 395:Drivers/STM32F7xx_HAL_Driver/Src/stm32f7xx_hal_can.c ****   /* Reset the CAN peripheral */
 396:Drivers/STM32F7xx_HAL_Driver/Src/stm32f7xx_hal_can.c ****   SET_BIT(hcan->Instance->MCR, CAN_MCR_RESET);
 397:Drivers/STM32F7xx_HAL_Driver/Src/stm32f7xx_hal_can.c **** 
 398:Drivers/STM32F7xx_HAL_Driver/Src/stm32f7xx_hal_can.c ****   /* Reset the CAN ErrorCode */
 399:Drivers/STM32F7xx_HAL_Driver/Src/stm32f7xx_hal_can.c ****   hcan->ErrorCode = HAL_CAN_ERROR_NONE;
 400:Drivers/STM32F7xx_HAL_Driver/Src/stm32f7xx_hal_can.c **** 
 401:Drivers/STM32F7xx_HAL_Driver/Src/stm32f7xx_hal_can.c ****   /* Change CAN state */
 402:Drivers/STM32F7xx_HAL_Driver/Src/stm32f7xx_hal_can.c ****   hcan->State = HAL_CAN_STATE_RESET;
 403:Drivers/STM32F7xx_HAL_Driver/Src/stm32f7xx_hal_can.c **** 
 404:Drivers/STM32F7xx_HAL_Driver/Src/stm32f7xx_hal_can.c ****   /* Return function status */
 405:Drivers/STM32F7xx_HAL_Driver/Src/stm32f7xx_hal_can.c ****   return HAL_OK;
 406:Drivers/STM32F7xx_HAL_Driver/Src/stm32f7xx_hal_can.c **** }
 407:Drivers/STM32F7xx_HAL_Driver/Src/stm32f7xx_hal_can.c **** 
 408:Drivers/STM32F7xx_HAL_Driver/Src/stm32f7xx_hal_can.c **** /**
 409:Drivers/STM32F7xx_HAL_Driver/Src/stm32f7xx_hal_can.c ****   * @brief  Initializes the CAN MSP.
 410:Drivers/STM32F7xx_HAL_Driver/Src/stm32f7xx_hal_can.c ****   * @param  hcan pointer to a CAN_HandleTypeDef structure that contains
 411:Drivers/STM32F7xx_HAL_Driver/Src/stm32f7xx_hal_can.c ****   *         the configuration information for the specified CAN.
 412:Drivers/STM32F7xx_HAL_Driver/Src/stm32f7xx_hal_can.c ****   * @retval None
 413:Drivers/STM32F7xx_HAL_Driver/Src/stm32f7xx_hal_can.c ****   */
 414:Drivers/STM32F7xx_HAL_Driver/Src/stm32f7xx_hal_can.c **** __weak void HAL_CAN_MspInit(CAN_HandleTypeDef *hcan)
 415:Drivers/STM32F7xx_HAL_Driver/Src/stm32f7xx_hal_can.c **** {
  27              		.loc 1 415 0
  28              		.cfi_startproc
  29              		@ args = 0, pretend = 0, frame = 0
  30              		@ frame_needed = 0, uses_anonymous_args = 0
  31              		@ link register save eliminated.
  32              	.LVL0:
 416:Drivers/STM32F7xx_HAL_Driver/Src/stm32f7xx_hal_can.c ****   /* Prevent unused argument(s) compilation warning */
 417:Drivers/STM32F7xx_HAL_Driver/Src/stm32f7xx_hal_can.c ****   UNUSED(hcan);
 418:Drivers/STM32F7xx_HAL_Driver/Src/stm32f7xx_hal_can.c **** 
 419:Drivers/STM32F7xx_HAL_Driver/Src/stm32f7xx_hal_can.c ****   /* NOTE : This function Should not be modified, when the callback is needed,
 420:Drivers/STM32F7xx_HAL_Driver/Src/stm32f7xx_hal_can.c ****             the HAL_CAN_MspInit could be implemented in the user file
 421:Drivers/STM32F7xx_HAL_Driver/Src/stm32f7xx_hal_can.c ****    */
 422:Drivers/STM32F7xx_HAL_Driver/Src/stm32f7xx_hal_can.c **** }
  33              		.loc 1 422 0
  34 0000 7047     		bx	lr
  35              		.cfi_endproc
ARM GAS  /var/folders/_f/lv_lzyzs40z4gsrf231fdcyh0000gn/T//ccB3MVWE.s 			page 9


  36              	.LFE140:
  38              		.section	.text.HAL_CAN_Init,"ax",%progbits
  39              		.align	1
  40              		.global	HAL_CAN_Init
  41              		.syntax unified
  42              		.thumb
  43              		.thumb_func
  44              		.fpu fpv5-d16
  46              	HAL_CAN_Init:
  47              	.LFB138:
 223:Drivers/STM32F7xx_HAL_Driver/Src/stm32f7xx_hal_can.c ****   uint32_t tickstart = 0U;
  48              		.loc 1 223 0
  49              		.cfi_startproc
  50              		@ args = 0, pretend = 0, frame = 0
  51              		@ frame_needed = 0, uses_anonymous_args = 0
  52              	.LVL1:
 227:Drivers/STM32F7xx_HAL_Driver/Src/stm32f7xx_hal_can.c ****   {
  53              		.loc 1 227 0
  54 0000 0028     		cmp	r0, #0
  55 0002 00F0A180 		beq	.L21
 223:Drivers/STM32F7xx_HAL_Driver/Src/stm32f7xx_hal_can.c ****   uint32_t tickstart = 0U;
  56              		.loc 1 223 0
  57 0006 38B5     		push	{r3, r4, r5, lr}
  58              	.LCFI0:
  59              		.cfi_def_cfa_offset 16
  60              		.cfi_offset 3, -16
  61              		.cfi_offset 4, -12
  62              		.cfi_offset 5, -8
  63              		.cfi_offset 14, -4
  64 0008 0446     		mov	r4, r0
 246:Drivers/STM32F7xx_HAL_Driver/Src/stm32f7xx_hal_can.c ****   {
  65              		.loc 1 246 0
  66 000a 90F82030 		ldrb	r3, [r0, #32]	@ zero_extendqisi2
  67 000e D3B1     		cbz	r3, .L26
  68              	.LVL2:
  69              	.L4:
 253:Drivers/STM32F7xx_HAL_Driver/Src/stm32f7xx_hal_can.c **** 
  70              		.loc 1 253 0
  71 0010 2268     		ldr	r2, [r4]
  72 0012 1368     		ldr	r3, [r2]
  73 0014 23F00203 		bic	r3, r3, #2
  74 0018 1360     		str	r3, [r2]
 256:Drivers/STM32F7xx_HAL_Driver/Src/stm32f7xx_hal_can.c **** 
  75              		.loc 1 256 0
  76 001a FFF7FEFF 		bl	HAL_GetTick
  77              	.LVL3:
  78 001e 0546     		mov	r5, r0
  79              	.LVL4:
  80              	.L5:
 259:Drivers/STM32F7xx_HAL_Driver/Src/stm32f7xx_hal_can.c ****   {
  81              		.loc 1 259 0
  82 0020 2368     		ldr	r3, [r4]
  83 0022 5A68     		ldr	r2, [r3, #4]
  84 0024 12F0020F 		tst	r2, #2
  85 0028 10D0     		beq	.L27
 261:Drivers/STM32F7xx_HAL_Driver/Src/stm32f7xx_hal_can.c ****     {
  86              		.loc 1 261 0
ARM GAS  /var/folders/_f/lv_lzyzs40z4gsrf231fdcyh0000gn/T//ccB3MVWE.s 			page 10


  87 002a FFF7FEFF 		bl	HAL_GetTick
  88              	.LVL5:
  89 002e 401B     		subs	r0, r0, r5
  90 0030 0A28     		cmp	r0, #10
  91 0032 F5D9     		bls	.L5
 264:Drivers/STM32F7xx_HAL_Driver/Src/stm32f7xx_hal_can.c **** 
  92              		.loc 1 264 0
  93 0034 636A     		ldr	r3, [r4, #36]
  94 0036 43F40033 		orr	r3, r3, #131072
  95 003a 6362     		str	r3, [r4, #36]
 267:Drivers/STM32F7xx_HAL_Driver/Src/stm32f7xx_hal_can.c **** 
  96              		.loc 1 267 0
  97 003c 0523     		movs	r3, #5
  98 003e 84F82030 		strb	r3, [r4, #32]
 269:Drivers/STM32F7xx_HAL_Driver/Src/stm32f7xx_hal_can.c ****     }
  99              		.loc 1 269 0
 100 0042 0120     		movs	r0, #1
 101              	.L3:
 369:Drivers/STM32F7xx_HAL_Driver/Src/stm32f7xx_hal_can.c **** 
 102              		.loc 1 369 0
 103 0044 38BD     		pop	{r3, r4, r5, pc}
 104              	.LVL6:
 105              	.L26:
 249:Drivers/STM32F7xx_HAL_Driver/Src/stm32f7xx_hal_can.c ****   }
 106              		.loc 1 249 0
 107 0046 FFF7FEFF 		bl	HAL_CAN_MspInit
 108              	.LVL7:
 109 004a E1E7     		b	.L4
 110              	.LVL8:
 111              	.L27:
 274:Drivers/STM32F7xx_HAL_Driver/Src/stm32f7xx_hal_can.c **** 
 112              		.loc 1 274 0
 113 004c 1A68     		ldr	r2, [r3]
 114 004e 42F00102 		orr	r2, r2, #1
 115 0052 1A60     		str	r2, [r3]
 277:Drivers/STM32F7xx_HAL_Driver/Src/stm32f7xx_hal_can.c **** 
 116              		.loc 1 277 0
 117 0054 FFF7FEFF 		bl	HAL_GetTick
 118              	.LVL9:
 119 0058 0546     		mov	r5, r0
 120              	.LVL10:
 121              	.L7:
 280:Drivers/STM32F7xx_HAL_Driver/Src/stm32f7xx_hal_can.c ****   {
 122              		.loc 1 280 0
 123 005a 2368     		ldr	r3, [r4]
 124 005c 5A68     		ldr	r2, [r3, #4]
 125 005e 12F0010F 		tst	r2, #1
 126 0062 0DD1     		bne	.L28
 282:Drivers/STM32F7xx_HAL_Driver/Src/stm32f7xx_hal_can.c ****     {
 127              		.loc 1 282 0
 128 0064 FFF7FEFF 		bl	HAL_GetTick
 129              	.LVL11:
 130 0068 401B     		subs	r0, r0, r5
 131 006a 0A28     		cmp	r0, #10
 132 006c F5D9     		bls	.L7
 285:Drivers/STM32F7xx_HAL_Driver/Src/stm32f7xx_hal_can.c **** 
 133              		.loc 1 285 0
ARM GAS  /var/folders/_f/lv_lzyzs40z4gsrf231fdcyh0000gn/T//ccB3MVWE.s 			page 11


 134 006e 636A     		ldr	r3, [r4, #36]
 135 0070 43F40033 		orr	r3, r3, #131072
 136 0074 6362     		str	r3, [r4, #36]
 288:Drivers/STM32F7xx_HAL_Driver/Src/stm32f7xx_hal_can.c **** 
 137              		.loc 1 288 0
 138 0076 0523     		movs	r3, #5
 139 0078 84F82030 		strb	r3, [r4, #32]
 290:Drivers/STM32F7xx_HAL_Driver/Src/stm32f7xx_hal_can.c ****     }
 140              		.loc 1 290 0
 141 007c 0120     		movs	r0, #1
 142 007e E1E7     		b	.L3
 143              	.L28:
 295:Drivers/STM32F7xx_HAL_Driver/Src/stm32f7xx_hal_can.c ****   {
 144              		.loc 1 295 0
 145 0080 227E     		ldrb	r2, [r4, #24]	@ zero_extendqisi2
 146 0082 012A     		cmp	r2, #1
 147 0084 3DD0     		beq	.L29
 301:Drivers/STM32F7xx_HAL_Driver/Src/stm32f7xx_hal_can.c ****   }
 148              		.loc 1 301 0
 149 0086 1A68     		ldr	r2, [r3]
 150 0088 22F08002 		bic	r2, r2, #128
 151 008c 1A60     		str	r2, [r3]
 152              	.L10:
 305:Drivers/STM32F7xx_HAL_Driver/Src/stm32f7xx_hal_can.c ****   {
 153              		.loc 1 305 0
 154 008e 637E     		ldrb	r3, [r4, #25]	@ zero_extendqisi2
 155 0090 012B     		cmp	r3, #1
 156 0092 3BD0     		beq	.L30
 311:Drivers/STM32F7xx_HAL_Driver/Src/stm32f7xx_hal_can.c ****   }
 157              		.loc 1 311 0
 158 0094 2268     		ldr	r2, [r4]
 159 0096 1368     		ldr	r3, [r2]
 160 0098 23F04003 		bic	r3, r3, #64
 161 009c 1360     		str	r3, [r2]
 162              	.L12:
 315:Drivers/STM32F7xx_HAL_Driver/Src/stm32f7xx_hal_can.c ****   {
 163              		.loc 1 315 0
 164 009e A37E     		ldrb	r3, [r4, #26]	@ zero_extendqisi2
 165 00a0 012B     		cmp	r3, #1
 166 00a2 39D0     		beq	.L31
 321:Drivers/STM32F7xx_HAL_Driver/Src/stm32f7xx_hal_can.c ****   }
 167              		.loc 1 321 0
 168 00a4 2268     		ldr	r2, [r4]
 169 00a6 1368     		ldr	r3, [r2]
 170 00a8 23F02003 		bic	r3, r3, #32
 171 00ac 1360     		str	r3, [r2]
 172              	.L14:
 325:Drivers/STM32F7xx_HAL_Driver/Src/stm32f7xx_hal_can.c ****   {
 173              		.loc 1 325 0
 174 00ae E37E     		ldrb	r3, [r4, #27]	@ zero_extendqisi2
 175 00b0 012B     		cmp	r3, #1
 176 00b2 37D0     		beq	.L32
 331:Drivers/STM32F7xx_HAL_Driver/Src/stm32f7xx_hal_can.c ****   }
 177              		.loc 1 331 0
 178 00b4 2268     		ldr	r2, [r4]
 179 00b6 1368     		ldr	r3, [r2]
 180 00b8 43F01003 		orr	r3, r3, #16
ARM GAS  /var/folders/_f/lv_lzyzs40z4gsrf231fdcyh0000gn/T//ccB3MVWE.s 			page 12


 181 00bc 1360     		str	r3, [r2]
 182              	.L16:
 335:Drivers/STM32F7xx_HAL_Driver/Src/stm32f7xx_hal_can.c ****   {
 183              		.loc 1 335 0
 184 00be 237F     		ldrb	r3, [r4, #28]	@ zero_extendqisi2
 185 00c0 012B     		cmp	r3, #1
 186 00c2 35D0     		beq	.L33
 341:Drivers/STM32F7xx_HAL_Driver/Src/stm32f7xx_hal_can.c ****   }
 187              		.loc 1 341 0
 188 00c4 2268     		ldr	r2, [r4]
 189 00c6 1368     		ldr	r3, [r2]
 190 00c8 23F00803 		bic	r3, r3, #8
 191 00cc 1360     		str	r3, [r2]
 192              	.L18:
 345:Drivers/STM32F7xx_HAL_Driver/Src/stm32f7xx_hal_can.c ****   {
 193              		.loc 1 345 0
 194 00ce 637F     		ldrb	r3, [r4, #29]	@ zero_extendqisi2
 195 00d0 012B     		cmp	r3, #1
 196 00d2 33D0     		beq	.L34
 351:Drivers/STM32F7xx_HAL_Driver/Src/stm32f7xx_hal_can.c ****   }
 197              		.loc 1 351 0
 198 00d4 2268     		ldr	r2, [r4]
 199 00d6 1368     		ldr	r3, [r2]
 200 00d8 23F00403 		bic	r3, r3, #4
 201 00dc 1360     		str	r3, [r2]
 202              	.L20:
 355:Drivers/STM32F7xx_HAL_Driver/Src/stm32f7xx_hal_can.c ****                                             hcan->Init.SyncJumpWidth  |
 203              		.loc 1 355 0
 204 00de A368     		ldr	r3, [r4, #8]
 205 00e0 E268     		ldr	r2, [r4, #12]
 206 00e2 1343     		orrs	r3, r3, r2
 207 00e4 2269     		ldr	r2, [r4, #16]
 208 00e6 1343     		orrs	r3, r3, r2
 209 00e8 6269     		ldr	r2, [r4, #20]
 210 00ea 1343     		orrs	r3, r3, r2
 211 00ec 6268     		ldr	r2, [r4, #4]
 212 00ee 013A     		subs	r2, r2, #1
 213 00f0 2168     		ldr	r1, [r4]
 214 00f2 1343     		orrs	r3, r3, r2
 215 00f4 CB61     		str	r3, [r1, #28]
 362:Drivers/STM32F7xx_HAL_Driver/Src/stm32f7xx_hal_can.c **** 
 216              		.loc 1 362 0
 217 00f6 0020     		movs	r0, #0
 218 00f8 6062     		str	r0, [r4, #36]
 365:Drivers/STM32F7xx_HAL_Driver/Src/stm32f7xx_hal_can.c **** 
 219              		.loc 1 365 0
 220 00fa 0123     		movs	r3, #1
 221 00fc 84F82030 		strb	r3, [r4, #32]
 368:Drivers/STM32F7xx_HAL_Driver/Src/stm32f7xx_hal_can.c **** }
 222              		.loc 1 368 0
 223 0100 A0E7     		b	.L3
 224              	.L29:
 297:Drivers/STM32F7xx_HAL_Driver/Src/stm32f7xx_hal_can.c ****   }
 225              		.loc 1 297 0
 226 0102 1A68     		ldr	r2, [r3]
 227 0104 42F08002 		orr	r2, r2, #128
 228 0108 1A60     		str	r2, [r3]
ARM GAS  /var/folders/_f/lv_lzyzs40z4gsrf231fdcyh0000gn/T//ccB3MVWE.s 			page 13


 229 010a C0E7     		b	.L10
 230              	.L30:
 307:Drivers/STM32F7xx_HAL_Driver/Src/stm32f7xx_hal_can.c ****   }
 231              		.loc 1 307 0
 232 010c 2268     		ldr	r2, [r4]
 233 010e 1368     		ldr	r3, [r2]
 234 0110 43F04003 		orr	r3, r3, #64
 235 0114 1360     		str	r3, [r2]
 236 0116 C2E7     		b	.L12
 237              	.L31:
 317:Drivers/STM32F7xx_HAL_Driver/Src/stm32f7xx_hal_can.c ****   }
 238              		.loc 1 317 0
 239 0118 2268     		ldr	r2, [r4]
 240 011a 1368     		ldr	r3, [r2]
 241 011c 43F02003 		orr	r3, r3, #32
 242 0120 1360     		str	r3, [r2]
 243 0122 C4E7     		b	.L14
 244              	.L32:
 327:Drivers/STM32F7xx_HAL_Driver/Src/stm32f7xx_hal_can.c ****   }
 245              		.loc 1 327 0
 246 0124 2268     		ldr	r2, [r4]
 247 0126 1368     		ldr	r3, [r2]
 248 0128 23F01003 		bic	r3, r3, #16
 249 012c 1360     		str	r3, [r2]
 250 012e C6E7     		b	.L16
 251              	.L33:
 337:Drivers/STM32F7xx_HAL_Driver/Src/stm32f7xx_hal_can.c ****   }
 252              		.loc 1 337 0
 253 0130 2268     		ldr	r2, [r4]
 254 0132 1368     		ldr	r3, [r2]
 255 0134 43F00803 		orr	r3, r3, #8
 256 0138 1360     		str	r3, [r2]
 257 013a C8E7     		b	.L18
 258              	.L34:
 347:Drivers/STM32F7xx_HAL_Driver/Src/stm32f7xx_hal_can.c ****   }
 259              		.loc 1 347 0
 260 013c 2268     		ldr	r2, [r4]
 261 013e 1368     		ldr	r3, [r2]
 262 0140 43F00403 		orr	r3, r3, #4
 263 0144 1360     		str	r3, [r2]
 264 0146 CAE7     		b	.L20
 265              	.LVL12:
 266              	.L21:
 267              	.LCFI1:
 268              		.cfi_def_cfa_offset 0
 269              		.cfi_restore 3
 270              		.cfi_restore 4
 271              		.cfi_restore 5
 272              		.cfi_restore 14
 229:Drivers/STM32F7xx_HAL_Driver/Src/stm32f7xx_hal_can.c ****   }
 273              		.loc 1 229 0
 274 0148 0120     		movs	r0, #1
 275              	.LVL13:
 369:Drivers/STM32F7xx_HAL_Driver/Src/stm32f7xx_hal_can.c **** 
 276              		.loc 1 369 0
 277 014a 7047     		bx	lr
 278              		.cfi_endproc
ARM GAS  /var/folders/_f/lv_lzyzs40z4gsrf231fdcyh0000gn/T//ccB3MVWE.s 			page 14


 279              	.LFE138:
 281              		.section	.text.HAL_CAN_MspDeInit,"ax",%progbits
 282              		.align	1
 283              		.weak	HAL_CAN_MspDeInit
 284              		.syntax unified
 285              		.thumb
 286              		.thumb_func
 287              		.fpu fpv5-d16
 289              	HAL_CAN_MspDeInit:
 290              	.LFB141:
 423:Drivers/STM32F7xx_HAL_Driver/Src/stm32f7xx_hal_can.c **** 
 424:Drivers/STM32F7xx_HAL_Driver/Src/stm32f7xx_hal_can.c **** /**
 425:Drivers/STM32F7xx_HAL_Driver/Src/stm32f7xx_hal_can.c ****   * @brief  DeInitializes the CAN MSP.
 426:Drivers/STM32F7xx_HAL_Driver/Src/stm32f7xx_hal_can.c ****   * @param  hcan pointer to a CAN_HandleTypeDef structure that contains
 427:Drivers/STM32F7xx_HAL_Driver/Src/stm32f7xx_hal_can.c ****   *         the configuration information for the specified CAN.
 428:Drivers/STM32F7xx_HAL_Driver/Src/stm32f7xx_hal_can.c ****   * @retval None
 429:Drivers/STM32F7xx_HAL_Driver/Src/stm32f7xx_hal_can.c ****   */
 430:Drivers/STM32F7xx_HAL_Driver/Src/stm32f7xx_hal_can.c **** __weak void HAL_CAN_MspDeInit(CAN_HandleTypeDef *hcan)
 431:Drivers/STM32F7xx_HAL_Driver/Src/stm32f7xx_hal_can.c **** {
 291              		.loc 1 431 0
 292              		.cfi_startproc
 293              		@ args = 0, pretend = 0, frame = 0
 294              		@ frame_needed = 0, uses_anonymous_args = 0
 295              		@ link register save eliminated.
 296              	.LVL14:
 432:Drivers/STM32F7xx_HAL_Driver/Src/stm32f7xx_hal_can.c ****   /* Prevent unused argument(s) compilation warning */
 433:Drivers/STM32F7xx_HAL_Driver/Src/stm32f7xx_hal_can.c ****   UNUSED(hcan);
 434:Drivers/STM32F7xx_HAL_Driver/Src/stm32f7xx_hal_can.c **** 
 435:Drivers/STM32F7xx_HAL_Driver/Src/stm32f7xx_hal_can.c ****   /* NOTE : This function Should not be modified, when the callback is needed,
 436:Drivers/STM32F7xx_HAL_Driver/Src/stm32f7xx_hal_can.c ****             the HAL_CAN_MspDeInit could be implemented in the user file
 437:Drivers/STM32F7xx_HAL_Driver/Src/stm32f7xx_hal_can.c ****    */
 438:Drivers/STM32F7xx_HAL_Driver/Src/stm32f7xx_hal_can.c **** }
 297              		.loc 1 438 0
 298 0000 7047     		bx	lr
 299              		.cfi_endproc
 300              	.LFE141:
 302              		.section	.text.HAL_CAN_ConfigFilter,"ax",%progbits
 303              		.align	1
 304              		.global	HAL_CAN_ConfigFilter
 305              		.syntax unified
 306              		.thumb
 307              		.thumb_func
 308              		.fpu fpv5-d16
 310              	HAL_CAN_ConfigFilter:
 311              	.LFB142:
 439:Drivers/STM32F7xx_HAL_Driver/Src/stm32f7xx_hal_can.c **** 
 440:Drivers/STM32F7xx_HAL_Driver/Src/stm32f7xx_hal_can.c **** 
 441:Drivers/STM32F7xx_HAL_Driver/Src/stm32f7xx_hal_can.c **** /**
 442:Drivers/STM32F7xx_HAL_Driver/Src/stm32f7xx_hal_can.c ****   * @}
 443:Drivers/STM32F7xx_HAL_Driver/Src/stm32f7xx_hal_can.c ****   */
 444:Drivers/STM32F7xx_HAL_Driver/Src/stm32f7xx_hal_can.c **** 
 445:Drivers/STM32F7xx_HAL_Driver/Src/stm32f7xx_hal_can.c **** /** @defgroup CAN_Exported_Functions_Group2 Configuration functions
 446:Drivers/STM32F7xx_HAL_Driver/Src/stm32f7xx_hal_can.c ****  *  @brief    Configuration functions.
 447:Drivers/STM32F7xx_HAL_Driver/Src/stm32f7xx_hal_can.c ****  *
 448:Drivers/STM32F7xx_HAL_Driver/Src/stm32f7xx_hal_can.c **** @verbatim
 449:Drivers/STM32F7xx_HAL_Driver/Src/stm32f7xx_hal_can.c ****   ==============================================================================
 450:Drivers/STM32F7xx_HAL_Driver/Src/stm32f7xx_hal_can.c ****               ##### Configuration functions #####
ARM GAS  /var/folders/_f/lv_lzyzs40z4gsrf231fdcyh0000gn/T//ccB3MVWE.s 			page 15


 451:Drivers/STM32F7xx_HAL_Driver/Src/stm32f7xx_hal_can.c ****   ==============================================================================
 452:Drivers/STM32F7xx_HAL_Driver/Src/stm32f7xx_hal_can.c ****     [..]  This section provides functions allowing to:
 453:Drivers/STM32F7xx_HAL_Driver/Src/stm32f7xx_hal_can.c ****       (+) HAL_CAN_ConfigFilter            : Configure the CAN reception filters
 454:Drivers/STM32F7xx_HAL_Driver/Src/stm32f7xx_hal_can.c **** 
 455:Drivers/STM32F7xx_HAL_Driver/Src/stm32f7xx_hal_can.c **** @endverbatim
 456:Drivers/STM32F7xx_HAL_Driver/Src/stm32f7xx_hal_can.c ****   * @{
 457:Drivers/STM32F7xx_HAL_Driver/Src/stm32f7xx_hal_can.c ****   */
 458:Drivers/STM32F7xx_HAL_Driver/Src/stm32f7xx_hal_can.c **** 
 459:Drivers/STM32F7xx_HAL_Driver/Src/stm32f7xx_hal_can.c **** /**
 460:Drivers/STM32F7xx_HAL_Driver/Src/stm32f7xx_hal_can.c ****   * @brief  Configures the CAN reception filter according to the specified
 461:Drivers/STM32F7xx_HAL_Driver/Src/stm32f7xx_hal_can.c ****   *         parameters in the CAN_FilterInitStruct.
 462:Drivers/STM32F7xx_HAL_Driver/Src/stm32f7xx_hal_can.c ****   * @param  hcan pointer to a CAN_HandleTypeDef structure that contains
 463:Drivers/STM32F7xx_HAL_Driver/Src/stm32f7xx_hal_can.c ****   *         the configuration information for the specified CAN.
 464:Drivers/STM32F7xx_HAL_Driver/Src/stm32f7xx_hal_can.c ****   * @param  sFilterConfig pointer to a CAN_FilterTypeDef structure that
 465:Drivers/STM32F7xx_HAL_Driver/Src/stm32f7xx_hal_can.c ****   *         contains the filter configuration information.
 466:Drivers/STM32F7xx_HAL_Driver/Src/stm32f7xx_hal_can.c ****   * @retval None
 467:Drivers/STM32F7xx_HAL_Driver/Src/stm32f7xx_hal_can.c ****   */
 468:Drivers/STM32F7xx_HAL_Driver/Src/stm32f7xx_hal_can.c **** HAL_StatusTypeDef HAL_CAN_ConfigFilter(CAN_HandleTypeDef *hcan, CAN_FilterTypeDef *sFilterConfig)
 469:Drivers/STM32F7xx_HAL_Driver/Src/stm32f7xx_hal_can.c **** {
 312              		.loc 1 469 0
 313              		.cfi_startproc
 314              		@ args = 0, pretend = 0, frame = 0
 315              		@ frame_needed = 0, uses_anonymous_args = 0
 316              		@ link register save eliminated.
 317              	.LVL15:
 470:Drivers/STM32F7xx_HAL_Driver/Src/stm32f7xx_hal_can.c ****   uint32_t filternbrbitpos = 0U;
 471:Drivers/STM32F7xx_HAL_Driver/Src/stm32f7xx_hal_can.c ****   CAN_TypeDef *can_ip = hcan->Instance;
 318              		.loc 1 471 0
 319 0000 0368     		ldr	r3, [r0]
 320              	.LVL16:
 472:Drivers/STM32F7xx_HAL_Driver/Src/stm32f7xx_hal_can.c **** 
 473:Drivers/STM32F7xx_HAL_Driver/Src/stm32f7xx_hal_can.c ****   if ((hcan->State == HAL_CAN_STATE_READY) ||
 321              		.loc 1 473 0
 322 0002 90F82020 		ldrb	r2, [r0, #32]	@ zero_extendqisi2
 323 0006 D2B2     		uxtb	r2, r2
 324 0008 012A     		cmp	r2, #1
 325 000a 0AD0     		beq	.L37
 474:Drivers/STM32F7xx_HAL_Driver/Src/stm32f7xx_hal_can.c ****       (hcan->State == HAL_CAN_STATE_LISTENING))
 326              		.loc 1 474 0 discriminator 1
 327 000c 90F82020 		ldrb	r2, [r0, #32]	@ zero_extendqisi2
 328 0010 D2B2     		uxtb	r2, r2
 473:Drivers/STM32F7xx_HAL_Driver/Src/stm32f7xx_hal_can.c ****       (hcan->State == HAL_CAN_STATE_LISTENING))
 329              		.loc 1 473 0 discriminator 1
 330 0012 022A     		cmp	r2, #2
 331 0014 05D0     		beq	.L37
 475:Drivers/STM32F7xx_HAL_Driver/Src/stm32f7xx_hal_can.c ****   {
 476:Drivers/STM32F7xx_HAL_Driver/Src/stm32f7xx_hal_can.c ****     /* Check the parameters */
 477:Drivers/STM32F7xx_HAL_Driver/Src/stm32f7xx_hal_can.c ****     assert_param(IS_CAN_FILTER_ID_HALFWORD(sFilterConfig->FilterIdHigh));
 478:Drivers/STM32F7xx_HAL_Driver/Src/stm32f7xx_hal_can.c ****     assert_param(IS_CAN_FILTER_ID_HALFWORD(sFilterConfig->FilterIdLow));
 479:Drivers/STM32F7xx_HAL_Driver/Src/stm32f7xx_hal_can.c ****     assert_param(IS_CAN_FILTER_ID_HALFWORD(sFilterConfig->FilterMaskIdHigh));
 480:Drivers/STM32F7xx_HAL_Driver/Src/stm32f7xx_hal_can.c ****     assert_param(IS_CAN_FILTER_ID_HALFWORD(sFilterConfig->FilterMaskIdLow));
 481:Drivers/STM32F7xx_HAL_Driver/Src/stm32f7xx_hal_can.c ****     assert_param(IS_CAN_FILTER_MODE(sFilterConfig->FilterMode));
 482:Drivers/STM32F7xx_HAL_Driver/Src/stm32f7xx_hal_can.c ****     assert_param(IS_CAN_FILTER_SCALE(sFilterConfig->FilterScale));
 483:Drivers/STM32F7xx_HAL_Driver/Src/stm32f7xx_hal_can.c ****     assert_param(IS_CAN_FILTER_FIFO(sFilterConfig->FilterFIFOAssignment));
 484:Drivers/STM32F7xx_HAL_Driver/Src/stm32f7xx_hal_can.c ****     assert_param(IS_FUNCTIONAL_STATE(sFilterConfig->FilterActivation));
 485:Drivers/STM32F7xx_HAL_Driver/Src/stm32f7xx_hal_can.c **** 
 486:Drivers/STM32F7xx_HAL_Driver/Src/stm32f7xx_hal_can.c **** #if defined(CAN3)
ARM GAS  /var/folders/_f/lv_lzyzs40z4gsrf231fdcyh0000gn/T//ccB3MVWE.s 			page 16


 487:Drivers/STM32F7xx_HAL_Driver/Src/stm32f7xx_hal_can.c ****     /* Check the CAN instance */
 488:Drivers/STM32F7xx_HAL_Driver/Src/stm32f7xx_hal_can.c ****     if (hcan->Instance == CAN3)
 489:Drivers/STM32F7xx_HAL_Driver/Src/stm32f7xx_hal_can.c ****     {
 490:Drivers/STM32F7xx_HAL_Driver/Src/stm32f7xx_hal_can.c ****       /* CAN3 is single instance with 14 dedicated filters banks */
 491:Drivers/STM32F7xx_HAL_Driver/Src/stm32f7xx_hal_can.c **** 
 492:Drivers/STM32F7xx_HAL_Driver/Src/stm32f7xx_hal_can.c ****       /* Check the parameters */
 493:Drivers/STM32F7xx_HAL_Driver/Src/stm32f7xx_hal_can.c ****       assert_param(IS_CAN_FILTER_BANK_SINGLE(sFilterConfig->FilterBank));
 494:Drivers/STM32F7xx_HAL_Driver/Src/stm32f7xx_hal_can.c ****     }
 495:Drivers/STM32F7xx_HAL_Driver/Src/stm32f7xx_hal_can.c ****     else
 496:Drivers/STM32F7xx_HAL_Driver/Src/stm32f7xx_hal_can.c ****     {
 497:Drivers/STM32F7xx_HAL_Driver/Src/stm32f7xx_hal_can.c ****       /* CAN1 and CAN2 are dual instances with 28 common filters banks */
 498:Drivers/STM32F7xx_HAL_Driver/Src/stm32f7xx_hal_can.c ****       /* Select master instance to access the filter banks */
 499:Drivers/STM32F7xx_HAL_Driver/Src/stm32f7xx_hal_can.c ****       can_ip = CAN1;
 500:Drivers/STM32F7xx_HAL_Driver/Src/stm32f7xx_hal_can.c **** 
 501:Drivers/STM32F7xx_HAL_Driver/Src/stm32f7xx_hal_can.c ****       /* Check the parameters */
 502:Drivers/STM32F7xx_HAL_Driver/Src/stm32f7xx_hal_can.c ****       assert_param(IS_CAN_FILTER_BANK_DUAL(sFilterConfig->FilterBank));
 503:Drivers/STM32F7xx_HAL_Driver/Src/stm32f7xx_hal_can.c ****       assert_param(IS_CAN_FILTER_BANK_DUAL(sFilterConfig->SlaveStartFilterBank));
 504:Drivers/STM32F7xx_HAL_Driver/Src/stm32f7xx_hal_can.c ****     }
 505:Drivers/STM32F7xx_HAL_Driver/Src/stm32f7xx_hal_can.c **** #elif defined(CAN2)
 506:Drivers/STM32F7xx_HAL_Driver/Src/stm32f7xx_hal_can.c ****     /* CAN1 and CAN2 are dual instances with 28 common filters banks */
 507:Drivers/STM32F7xx_HAL_Driver/Src/stm32f7xx_hal_can.c ****     /* Select master instance to access the filter banks */
 508:Drivers/STM32F7xx_HAL_Driver/Src/stm32f7xx_hal_can.c ****     can_ip = CAN1;
 509:Drivers/STM32F7xx_HAL_Driver/Src/stm32f7xx_hal_can.c **** 
 510:Drivers/STM32F7xx_HAL_Driver/Src/stm32f7xx_hal_can.c ****     /* Check the parameters */
 511:Drivers/STM32F7xx_HAL_Driver/Src/stm32f7xx_hal_can.c ****     assert_param(IS_CAN_FILTER_BANK_DUAL(sFilterConfig->FilterBank));
 512:Drivers/STM32F7xx_HAL_Driver/Src/stm32f7xx_hal_can.c ****     assert_param(IS_CAN_FILTER_BANK_DUAL(sFilterConfig->SlaveStartFilterBank));
 513:Drivers/STM32F7xx_HAL_Driver/Src/stm32f7xx_hal_can.c **** #else
 514:Drivers/STM32F7xx_HAL_Driver/Src/stm32f7xx_hal_can.c ****     /* CAN1 is single instance with 14 dedicated filters banks */
 515:Drivers/STM32F7xx_HAL_Driver/Src/stm32f7xx_hal_can.c **** 
 516:Drivers/STM32F7xx_HAL_Driver/Src/stm32f7xx_hal_can.c ****     /* Check the parameters */
 517:Drivers/STM32F7xx_HAL_Driver/Src/stm32f7xx_hal_can.c ****     assert_param(IS_CAN_FILTER_BANK_SINGLE(sFilterConfig->FilterBank));
 518:Drivers/STM32F7xx_HAL_Driver/Src/stm32f7xx_hal_can.c **** #endif
 519:Drivers/STM32F7xx_HAL_Driver/Src/stm32f7xx_hal_can.c **** 
 520:Drivers/STM32F7xx_HAL_Driver/Src/stm32f7xx_hal_can.c ****     /* Initialisation mode for the filter */
 521:Drivers/STM32F7xx_HAL_Driver/Src/stm32f7xx_hal_can.c ****     SET_BIT(can_ip->FMR, CAN_FMR_FINIT);
 522:Drivers/STM32F7xx_HAL_Driver/Src/stm32f7xx_hal_can.c **** 
 523:Drivers/STM32F7xx_HAL_Driver/Src/stm32f7xx_hal_can.c **** #if defined(CAN3)
 524:Drivers/STM32F7xx_HAL_Driver/Src/stm32f7xx_hal_can.c ****     /* Check the CAN instance */
 525:Drivers/STM32F7xx_HAL_Driver/Src/stm32f7xx_hal_can.c ****     if (can_ip == CAN1)
 526:Drivers/STM32F7xx_HAL_Driver/Src/stm32f7xx_hal_can.c ****     {
 527:Drivers/STM32F7xx_HAL_Driver/Src/stm32f7xx_hal_can.c ****       /* Select the start filter number of CAN2 slave instance */
 528:Drivers/STM32F7xx_HAL_Driver/Src/stm32f7xx_hal_can.c ****       CLEAR_BIT(can_ip->FMR, CAN_FMR_CAN2SB);
 529:Drivers/STM32F7xx_HAL_Driver/Src/stm32f7xx_hal_can.c ****       SET_BIT(can_ip->FMR, sFilterConfig->SlaveStartFilterBank << CAN_FMR_CAN2SB_Pos);
 530:Drivers/STM32F7xx_HAL_Driver/Src/stm32f7xx_hal_can.c ****     }
 531:Drivers/STM32F7xx_HAL_Driver/Src/stm32f7xx_hal_can.c **** 
 532:Drivers/STM32F7xx_HAL_Driver/Src/stm32f7xx_hal_can.c **** #elif defined(CAN2)
 533:Drivers/STM32F7xx_HAL_Driver/Src/stm32f7xx_hal_can.c ****     /* Select the start filter number of CAN2 slave instance */
 534:Drivers/STM32F7xx_HAL_Driver/Src/stm32f7xx_hal_can.c ****     CLEAR_BIT(can_ip->FMR, CAN_FMR_CAN2SB);
 535:Drivers/STM32F7xx_HAL_Driver/Src/stm32f7xx_hal_can.c ****     SET_BIT(can_ip->FMR, sFilterConfig->SlaveStartFilterBank << CAN_FMR_CAN2SB_Pos);
 536:Drivers/STM32F7xx_HAL_Driver/Src/stm32f7xx_hal_can.c **** 
 537:Drivers/STM32F7xx_HAL_Driver/Src/stm32f7xx_hal_can.c **** #endif
 538:Drivers/STM32F7xx_HAL_Driver/Src/stm32f7xx_hal_can.c ****     /* Convert filter number into bit position */
 539:Drivers/STM32F7xx_HAL_Driver/Src/stm32f7xx_hal_can.c ****     filternbrbitpos = (1U) << sFilterConfig->FilterBank;
 540:Drivers/STM32F7xx_HAL_Driver/Src/stm32f7xx_hal_can.c **** 
 541:Drivers/STM32F7xx_HAL_Driver/Src/stm32f7xx_hal_can.c ****     /* Filter Deactivation */
 542:Drivers/STM32F7xx_HAL_Driver/Src/stm32f7xx_hal_can.c ****     CLEAR_BIT(can_ip->FA1R, filternbrbitpos);
 543:Drivers/STM32F7xx_HAL_Driver/Src/stm32f7xx_hal_can.c **** 
ARM GAS  /var/folders/_f/lv_lzyzs40z4gsrf231fdcyh0000gn/T//ccB3MVWE.s 			page 17


 544:Drivers/STM32F7xx_HAL_Driver/Src/stm32f7xx_hal_can.c ****     /* Filter Scale */
 545:Drivers/STM32F7xx_HAL_Driver/Src/stm32f7xx_hal_can.c ****     if (sFilterConfig->FilterScale == CAN_FILTERSCALE_16BIT)
 546:Drivers/STM32F7xx_HAL_Driver/Src/stm32f7xx_hal_can.c ****     {
 547:Drivers/STM32F7xx_HAL_Driver/Src/stm32f7xx_hal_can.c ****       /* 16-bit scale for the filter */
 548:Drivers/STM32F7xx_HAL_Driver/Src/stm32f7xx_hal_can.c ****       CLEAR_BIT(can_ip->FS1R, filternbrbitpos);
 549:Drivers/STM32F7xx_HAL_Driver/Src/stm32f7xx_hal_can.c **** 
 550:Drivers/STM32F7xx_HAL_Driver/Src/stm32f7xx_hal_can.c ****       /* First 16-bit identifier and First 16-bit mask */
 551:Drivers/STM32F7xx_HAL_Driver/Src/stm32f7xx_hal_can.c ****       /* Or First 16-bit identifier and Second 16-bit identifier */
 552:Drivers/STM32F7xx_HAL_Driver/Src/stm32f7xx_hal_can.c ****       can_ip->sFilterRegister[sFilterConfig->FilterBank].FR1 =
 553:Drivers/STM32F7xx_HAL_Driver/Src/stm32f7xx_hal_can.c ****         ((0x0000FFFFU & (uint32_t)sFilterConfig->FilterMaskIdLow) << 16U) |
 554:Drivers/STM32F7xx_HAL_Driver/Src/stm32f7xx_hal_can.c ****         (0x0000FFFFU & (uint32_t)sFilterConfig->FilterIdLow);
 555:Drivers/STM32F7xx_HAL_Driver/Src/stm32f7xx_hal_can.c **** 
 556:Drivers/STM32F7xx_HAL_Driver/Src/stm32f7xx_hal_can.c ****       /* Second 16-bit identifier and Second 16-bit mask */
 557:Drivers/STM32F7xx_HAL_Driver/Src/stm32f7xx_hal_can.c ****       /* Or Third 16-bit identifier and Fourth 16-bit identifier */
 558:Drivers/STM32F7xx_HAL_Driver/Src/stm32f7xx_hal_can.c ****       can_ip->sFilterRegister[sFilterConfig->FilterBank].FR2 =
 559:Drivers/STM32F7xx_HAL_Driver/Src/stm32f7xx_hal_can.c ****         ((0x0000FFFFU & (uint32_t)sFilterConfig->FilterMaskIdHigh) << 16U) |
 560:Drivers/STM32F7xx_HAL_Driver/Src/stm32f7xx_hal_can.c ****         (0x0000FFFFU & (uint32_t)sFilterConfig->FilterIdHigh);
 561:Drivers/STM32F7xx_HAL_Driver/Src/stm32f7xx_hal_can.c ****     }
 562:Drivers/STM32F7xx_HAL_Driver/Src/stm32f7xx_hal_can.c **** 
 563:Drivers/STM32F7xx_HAL_Driver/Src/stm32f7xx_hal_can.c ****     if (sFilterConfig->FilterScale == CAN_FILTERSCALE_32BIT)
 564:Drivers/STM32F7xx_HAL_Driver/Src/stm32f7xx_hal_can.c ****     {
 565:Drivers/STM32F7xx_HAL_Driver/Src/stm32f7xx_hal_can.c ****       /* 32-bit scale for the filter */
 566:Drivers/STM32F7xx_HAL_Driver/Src/stm32f7xx_hal_can.c ****       SET_BIT(can_ip->FS1R, filternbrbitpos);
 567:Drivers/STM32F7xx_HAL_Driver/Src/stm32f7xx_hal_can.c **** 
 568:Drivers/STM32F7xx_HAL_Driver/Src/stm32f7xx_hal_can.c ****       /* 32-bit identifier or First 32-bit identifier */
 569:Drivers/STM32F7xx_HAL_Driver/Src/stm32f7xx_hal_can.c ****       can_ip->sFilterRegister[sFilterConfig->FilterBank].FR1 =
 570:Drivers/STM32F7xx_HAL_Driver/Src/stm32f7xx_hal_can.c ****         ((0x0000FFFFU & (uint32_t)sFilterConfig->FilterIdHigh) << 16U) |
 571:Drivers/STM32F7xx_HAL_Driver/Src/stm32f7xx_hal_can.c ****         (0x0000FFFFU & (uint32_t)sFilterConfig->FilterIdLow);
 572:Drivers/STM32F7xx_HAL_Driver/Src/stm32f7xx_hal_can.c **** 
 573:Drivers/STM32F7xx_HAL_Driver/Src/stm32f7xx_hal_can.c ****       /* 32-bit mask or Second 32-bit identifier */
 574:Drivers/STM32F7xx_HAL_Driver/Src/stm32f7xx_hal_can.c ****       can_ip->sFilterRegister[sFilterConfig->FilterBank].FR2 =
 575:Drivers/STM32F7xx_HAL_Driver/Src/stm32f7xx_hal_can.c ****         ((0x0000FFFFU & (uint32_t)sFilterConfig->FilterMaskIdHigh) << 16U) |
 576:Drivers/STM32F7xx_HAL_Driver/Src/stm32f7xx_hal_can.c ****         (0x0000FFFFU & (uint32_t)sFilterConfig->FilterMaskIdLow);
 577:Drivers/STM32F7xx_HAL_Driver/Src/stm32f7xx_hal_can.c ****     }
 578:Drivers/STM32F7xx_HAL_Driver/Src/stm32f7xx_hal_can.c **** 
 579:Drivers/STM32F7xx_HAL_Driver/Src/stm32f7xx_hal_can.c ****     /* Filter Mode */
 580:Drivers/STM32F7xx_HAL_Driver/Src/stm32f7xx_hal_can.c ****     if (sFilterConfig->FilterMode == CAN_FILTERMODE_IDMASK)
 581:Drivers/STM32F7xx_HAL_Driver/Src/stm32f7xx_hal_can.c ****     {
 582:Drivers/STM32F7xx_HAL_Driver/Src/stm32f7xx_hal_can.c ****       /* Id/Mask mode for the filter*/
 583:Drivers/STM32F7xx_HAL_Driver/Src/stm32f7xx_hal_can.c ****       CLEAR_BIT(can_ip->FM1R, filternbrbitpos);
 584:Drivers/STM32F7xx_HAL_Driver/Src/stm32f7xx_hal_can.c ****     }
 585:Drivers/STM32F7xx_HAL_Driver/Src/stm32f7xx_hal_can.c ****     else /* CAN_FilterInitStruct->CAN_FilterMode == CAN_FilterMode_IdList */
 586:Drivers/STM32F7xx_HAL_Driver/Src/stm32f7xx_hal_can.c ****     {
 587:Drivers/STM32F7xx_HAL_Driver/Src/stm32f7xx_hal_can.c ****       /* Identifier list mode for the filter*/
 588:Drivers/STM32F7xx_HAL_Driver/Src/stm32f7xx_hal_can.c ****       SET_BIT(can_ip->FM1R, filternbrbitpos);
 589:Drivers/STM32F7xx_HAL_Driver/Src/stm32f7xx_hal_can.c ****     }
 590:Drivers/STM32F7xx_HAL_Driver/Src/stm32f7xx_hal_can.c **** 
 591:Drivers/STM32F7xx_HAL_Driver/Src/stm32f7xx_hal_can.c ****     /* Filter FIFO assignment */
 592:Drivers/STM32F7xx_HAL_Driver/Src/stm32f7xx_hal_can.c ****     if (sFilterConfig->FilterFIFOAssignment == CAN_FILTER_FIFO0)
 593:Drivers/STM32F7xx_HAL_Driver/Src/stm32f7xx_hal_can.c ****     {
 594:Drivers/STM32F7xx_HAL_Driver/Src/stm32f7xx_hal_can.c ****       /* FIFO 0 assignation for the filter */
 595:Drivers/STM32F7xx_HAL_Driver/Src/stm32f7xx_hal_can.c ****       CLEAR_BIT(can_ip->FFA1R, filternbrbitpos);
 596:Drivers/STM32F7xx_HAL_Driver/Src/stm32f7xx_hal_can.c ****     }
 597:Drivers/STM32F7xx_HAL_Driver/Src/stm32f7xx_hal_can.c ****     else
 598:Drivers/STM32F7xx_HAL_Driver/Src/stm32f7xx_hal_can.c ****     {
 599:Drivers/STM32F7xx_HAL_Driver/Src/stm32f7xx_hal_can.c ****       /* FIFO 1 assignation for the filter */
 600:Drivers/STM32F7xx_HAL_Driver/Src/stm32f7xx_hal_can.c ****       SET_BIT(can_ip->FFA1R, filternbrbitpos);
ARM GAS  /var/folders/_f/lv_lzyzs40z4gsrf231fdcyh0000gn/T//ccB3MVWE.s 			page 18


 601:Drivers/STM32F7xx_HAL_Driver/Src/stm32f7xx_hal_can.c ****     }
 602:Drivers/STM32F7xx_HAL_Driver/Src/stm32f7xx_hal_can.c **** 
 603:Drivers/STM32F7xx_HAL_Driver/Src/stm32f7xx_hal_can.c ****     /* Filter activation */
 604:Drivers/STM32F7xx_HAL_Driver/Src/stm32f7xx_hal_can.c ****     if (sFilterConfig->FilterActivation == ENABLE)
 605:Drivers/STM32F7xx_HAL_Driver/Src/stm32f7xx_hal_can.c ****     {
 606:Drivers/STM32F7xx_HAL_Driver/Src/stm32f7xx_hal_can.c ****       SET_BIT(can_ip->FA1R, filternbrbitpos);
 607:Drivers/STM32F7xx_HAL_Driver/Src/stm32f7xx_hal_can.c ****     }
 608:Drivers/STM32F7xx_HAL_Driver/Src/stm32f7xx_hal_can.c **** 
 609:Drivers/STM32F7xx_HAL_Driver/Src/stm32f7xx_hal_can.c ****     /* Leave the initialisation mode for the filter */
 610:Drivers/STM32F7xx_HAL_Driver/Src/stm32f7xx_hal_can.c ****     CLEAR_BIT(can_ip->FMR, CAN_FMR_FINIT);
 611:Drivers/STM32F7xx_HAL_Driver/Src/stm32f7xx_hal_can.c **** 
 612:Drivers/STM32F7xx_HAL_Driver/Src/stm32f7xx_hal_can.c ****     /* Return function status */
 613:Drivers/STM32F7xx_HAL_Driver/Src/stm32f7xx_hal_can.c ****     return HAL_OK;
 614:Drivers/STM32F7xx_HAL_Driver/Src/stm32f7xx_hal_can.c ****   }
 615:Drivers/STM32F7xx_HAL_Driver/Src/stm32f7xx_hal_can.c ****   else
 616:Drivers/STM32F7xx_HAL_Driver/Src/stm32f7xx_hal_can.c ****   {
 617:Drivers/STM32F7xx_HAL_Driver/Src/stm32f7xx_hal_can.c ****     /* Update error code */
 618:Drivers/STM32F7xx_HAL_Driver/Src/stm32f7xx_hal_can.c ****     hcan->ErrorCode |= HAL_CAN_ERROR_NOT_INITIALIZED;
 332              		.loc 1 618 0
 333 0016 436A     		ldr	r3, [r0, #36]
 334              	.LVL17:
 335 0018 43F48023 		orr	r3, r3, #262144
 336 001c 4362     		str	r3, [r0, #36]
 619:Drivers/STM32F7xx_HAL_Driver/Src/stm32f7xx_hal_can.c **** 
 620:Drivers/STM32F7xx_HAL_Driver/Src/stm32f7xx_hal_can.c ****     return HAL_ERROR;
 337              		.loc 1 620 0
 338 001e 0120     		movs	r0, #1
 339              	.LVL18:
 621:Drivers/STM32F7xx_HAL_Driver/Src/stm32f7xx_hal_can.c ****   }
 622:Drivers/STM32F7xx_HAL_Driver/Src/stm32f7xx_hal_can.c **** }
 340              		.loc 1 622 0
 341 0020 7047     		bx	lr
 342              	.LVL19:
 343              	.L37:
 469:Drivers/STM32F7xx_HAL_Driver/Src/stm32f7xx_hal_can.c ****   uint32_t filternbrbitpos = 0U;
 344              		.loc 1 469 0
 345 0022 70B4     		push	{r4, r5, r6}
 346              	.LCFI2:
 347              		.cfi_def_cfa_offset 12
 348              		.cfi_offset 4, -12
 349              		.cfi_offset 5, -8
 350              		.cfi_offset 6, -4
 488:Drivers/STM32F7xx_HAL_Driver/Src/stm32f7xx_hal_can.c ****     {
 351              		.loc 1 488 0
 352 0024 424A     		ldr	r2, .L56
 353 0026 9342     		cmp	r3, r2
 354 0028 00D0     		beq	.L39
 499:Drivers/STM32F7xx_HAL_Driver/Src/stm32f7xx_hal_can.c **** 
 355              		.loc 1 499 0
 356 002a 424B     		ldr	r3, .L56+4
 357              	.LVL20:
 358              	.L39:
 521:Drivers/STM32F7xx_HAL_Driver/Src/stm32f7xx_hal_can.c **** 
 359              		.loc 1 521 0
 360 002c D3F80022 		ldr	r2, [r3, #512]
 361 0030 42F00102 		orr	r2, r2, #1
 362 0034 C3F80022 		str	r2, [r3, #512]
ARM GAS  /var/folders/_f/lv_lzyzs40z4gsrf231fdcyh0000gn/T//ccB3MVWE.s 			page 19


 525:Drivers/STM32F7xx_HAL_Driver/Src/stm32f7xx_hal_can.c ****     {
 363              		.loc 1 525 0
 364 0038 3E4A     		ldr	r2, .L56+4
 365 003a 9342     		cmp	r3, r2
 366 003c 40D0     		beq	.L53
 367              	.LVL21:
 368              	.L40:
 539:Drivers/STM32F7xx_HAL_Driver/Src/stm32f7xx_hal_can.c **** 
 369              		.loc 1 539 0
 370 003e 4A69     		ldr	r2, [r1, #20]
 371 0040 0120     		movs	r0, #1
 372 0042 00FA02F2 		lsl	r2, r0, r2
 373              	.LVL22:
 542:Drivers/STM32F7xx_HAL_Driver/Src/stm32f7xx_hal_can.c **** 
 374              		.loc 1 542 0
 375 0046 D3F81C42 		ldr	r4, [r3, #540]
 376 004a D043     		mvns	r0, r2
 377 004c 0440     		ands	r4, r4, r0
 378 004e C3F81C42 		str	r4, [r3, #540]
 545:Drivers/STM32F7xx_HAL_Driver/Src/stm32f7xx_hal_can.c ****     {
 379              		.loc 1 545 0
 380 0052 CC69     		ldr	r4, [r1, #28]
 381 0054 ACB9     		cbnz	r4, .L41
 548:Drivers/STM32F7xx_HAL_Driver/Src/stm32f7xx_hal_can.c **** 
 382              		.loc 1 548 0
 383 0056 D3F80C42 		ldr	r4, [r3, #524]
 384 005a 0440     		ands	r4, r4, r0
 385 005c C3F80C42 		str	r4, [r3, #524]
 553:Drivers/STM32F7xx_HAL_Driver/Src/stm32f7xx_hal_can.c ****         (0x0000FFFFU & (uint32_t)sFilterConfig->FilterIdLow);
 386              		.loc 1 553 0
 387 0060 CE68     		ldr	r6, [r1, #12]
 554:Drivers/STM32F7xx_HAL_Driver/Src/stm32f7xx_hal_can.c **** 
 388              		.loc 1 554 0
 389 0062 8D88     		ldrh	r5, [r1, #4]
 552:Drivers/STM32F7xx_HAL_Driver/Src/stm32f7xx_hal_can.c ****         ((0x0000FFFFU & (uint32_t)sFilterConfig->FilterMaskIdLow) << 16U) |
 390              		.loc 1 552 0
 391 0064 4C69     		ldr	r4, [r1, #20]
 553:Drivers/STM32F7xx_HAL_Driver/Src/stm32f7xx_hal_can.c ****         (0x0000FFFFU & (uint32_t)sFilterConfig->FilterIdLow);
 392              		.loc 1 553 0
 393 0066 45EA0645 		orr	r5, r5, r6, lsl #16
 552:Drivers/STM32F7xx_HAL_Driver/Src/stm32f7xx_hal_can.c ****         ((0x0000FFFFU & (uint32_t)sFilterConfig->FilterMaskIdLow) << 16U) |
 394              		.loc 1 552 0
 395 006a 4834     		adds	r4, r4, #72
 396 006c 43F83450 		str	r5, [r3, r4, lsl #3]
 559:Drivers/STM32F7xx_HAL_Driver/Src/stm32f7xx_hal_can.c ****         (0x0000FFFFU & (uint32_t)sFilterConfig->FilterIdHigh);
 397              		.loc 1 559 0
 398 0070 8E68     		ldr	r6, [r1, #8]
 560:Drivers/STM32F7xx_HAL_Driver/Src/stm32f7xx_hal_can.c ****     }
 399              		.loc 1 560 0
 400 0072 0D88     		ldrh	r5, [r1]
 558:Drivers/STM32F7xx_HAL_Driver/Src/stm32f7xx_hal_can.c ****         ((0x0000FFFFU & (uint32_t)sFilterConfig->FilterMaskIdHigh) << 16U) |
 401              		.loc 1 558 0
 402 0074 4C69     		ldr	r4, [r1, #20]
 559:Drivers/STM32F7xx_HAL_Driver/Src/stm32f7xx_hal_can.c ****         (0x0000FFFFU & (uint32_t)sFilterConfig->FilterIdHigh);
 403              		.loc 1 559 0
 404 0076 45EA0645 		orr	r5, r5, r6, lsl #16
 558:Drivers/STM32F7xx_HAL_Driver/Src/stm32f7xx_hal_can.c ****         ((0x0000FFFFU & (uint32_t)sFilterConfig->FilterMaskIdHigh) << 16U) |
ARM GAS  /var/folders/_f/lv_lzyzs40z4gsrf231fdcyh0000gn/T//ccB3MVWE.s 			page 20


 405              		.loc 1 558 0
 406 007a 4834     		adds	r4, r4, #72
 407 007c 03EBC404 		add	r4, r3, r4, lsl #3
 408 0080 6560     		str	r5, [r4, #4]
 409              	.L41:
 563:Drivers/STM32F7xx_HAL_Driver/Src/stm32f7xx_hal_can.c ****     {
 410              		.loc 1 563 0
 411 0082 CC69     		ldr	r4, [r1, #28]
 412 0084 012C     		cmp	r4, #1
 413 0086 29D0     		beq	.L54
 414              	.L42:
 580:Drivers/STM32F7xx_HAL_Driver/Src/stm32f7xx_hal_can.c ****     {
 415              		.loc 1 580 0
 416 0088 8C69     		ldr	r4, [r1, #24]
 417 008a 002C     		cmp	r4, #0
 418 008c 3DD1     		bne	.L43
 583:Drivers/STM32F7xx_HAL_Driver/Src/stm32f7xx_hal_can.c ****     }
 419              		.loc 1 583 0
 420 008e D3F80442 		ldr	r4, [r3, #516]
 421 0092 0440     		ands	r4, r4, r0
 422 0094 C3F80442 		str	r4, [r3, #516]
 423              	.L44:
 592:Drivers/STM32F7xx_HAL_Driver/Src/stm32f7xx_hal_can.c ****     {
 424              		.loc 1 592 0
 425 0098 0C69     		ldr	r4, [r1, #16]
 426 009a 002C     		cmp	r4, #0
 427 009c 3BD1     		bne	.L45
 595:Drivers/STM32F7xx_HAL_Driver/Src/stm32f7xx_hal_can.c ****     }
 428              		.loc 1 595 0
 429 009e D3F81442 		ldr	r4, [r3, #532]
 430 00a2 2040     		ands	r0, r0, r4
 431 00a4 C3F81402 		str	r0, [r3, #532]
 432              	.L46:
 604:Drivers/STM32F7xx_HAL_Driver/Src/stm32f7xx_hal_can.c ****     {
 433              		.loc 1 604 0
 434 00a8 096A     		ldr	r1, [r1, #32]
 435              	.LVL23:
 436 00aa 0129     		cmp	r1, #1
 437 00ac 39D0     		beq	.L55
 438              	.LVL24:
 439              	.L47:
 610:Drivers/STM32F7xx_HAL_Driver/Src/stm32f7xx_hal_can.c **** 
 440              		.loc 1 610 0
 441 00ae D3F80022 		ldr	r2, [r3, #512]
 442 00b2 22F00102 		bic	r2, r2, #1
 443 00b6 C3F80022 		str	r2, [r3, #512]
 613:Drivers/STM32F7xx_HAL_Driver/Src/stm32f7xx_hal_can.c ****   }
 444              		.loc 1 613 0
 445 00ba 0020     		movs	r0, #0
 446              		.loc 1 622 0
 447 00bc 70BC     		pop	{r4, r5, r6}
 448              	.LCFI3:
 449              		.cfi_remember_state
 450              		.cfi_restore 6
 451              		.cfi_restore 5
 452              		.cfi_restore 4
 453              		.cfi_def_cfa_offset 0
ARM GAS  /var/folders/_f/lv_lzyzs40z4gsrf231fdcyh0000gn/T//ccB3MVWE.s 			page 21


 454 00be 7047     		bx	lr
 455              	.LVL25:
 456              	.L53:
 457              	.LCFI4:
 458              		.cfi_restore_state
 528:Drivers/STM32F7xx_HAL_Driver/Src/stm32f7xx_hal_can.c ****       SET_BIT(can_ip->FMR, sFilterConfig->SlaveStartFilterBank << CAN_FMR_CAN2SB_Pos);
 459              		.loc 1 528 0
 460 00c0 D3F80022 		ldr	r2, [r3, #512]
 461 00c4 22F47C52 		bic	r2, r2, #16128
 462 00c8 C3F80022 		str	r2, [r3, #512]
 529:Drivers/STM32F7xx_HAL_Driver/Src/stm32f7xx_hal_can.c ****     }
 463              		.loc 1 529 0
 464 00cc D3F80022 		ldr	r2, [r3, #512]
 465 00d0 486A     		ldr	r0, [r1, #36]
 466              	.LVL26:
 467 00d2 42EA0022 		orr	r2, r2, r0, lsl #8
 468 00d6 C3F80022 		str	r2, [r3, #512]
 469 00da B0E7     		b	.L40
 470              	.LVL27:
 471              	.L54:
 566:Drivers/STM32F7xx_HAL_Driver/Src/stm32f7xx_hal_can.c **** 
 472              		.loc 1 566 0
 473 00dc D3F80C42 		ldr	r4, [r3, #524]
 474 00e0 1443     		orrs	r4, r4, r2
 475 00e2 C3F80C42 		str	r4, [r3, #524]
 570:Drivers/STM32F7xx_HAL_Driver/Src/stm32f7xx_hal_can.c ****         (0x0000FFFFU & (uint32_t)sFilterConfig->FilterIdLow);
 476              		.loc 1 570 0
 477 00e6 0E68     		ldr	r6, [r1]
 571:Drivers/STM32F7xx_HAL_Driver/Src/stm32f7xx_hal_can.c **** 
 478              		.loc 1 571 0
 479 00e8 8D88     		ldrh	r5, [r1, #4]
 569:Drivers/STM32F7xx_HAL_Driver/Src/stm32f7xx_hal_can.c ****         ((0x0000FFFFU & (uint32_t)sFilterConfig->FilterIdHigh) << 16U) |
 480              		.loc 1 569 0
 481 00ea 4C69     		ldr	r4, [r1, #20]
 570:Drivers/STM32F7xx_HAL_Driver/Src/stm32f7xx_hal_can.c ****         (0x0000FFFFU & (uint32_t)sFilterConfig->FilterIdLow);
 482              		.loc 1 570 0
 483 00ec 45EA0645 		orr	r5, r5, r6, lsl #16
 569:Drivers/STM32F7xx_HAL_Driver/Src/stm32f7xx_hal_can.c ****         ((0x0000FFFFU & (uint32_t)sFilterConfig->FilterIdHigh) << 16U) |
 484              		.loc 1 569 0
 485 00f0 4834     		adds	r4, r4, #72
 486 00f2 43F83450 		str	r5, [r3, r4, lsl #3]
 575:Drivers/STM32F7xx_HAL_Driver/Src/stm32f7xx_hal_can.c ****         (0x0000FFFFU & (uint32_t)sFilterConfig->FilterMaskIdLow);
 487              		.loc 1 575 0
 488 00f6 8E68     		ldr	r6, [r1, #8]
 576:Drivers/STM32F7xx_HAL_Driver/Src/stm32f7xx_hal_can.c ****     }
 489              		.loc 1 576 0
 490 00f8 8D89     		ldrh	r5, [r1, #12]
 574:Drivers/STM32F7xx_HAL_Driver/Src/stm32f7xx_hal_can.c ****         ((0x0000FFFFU & (uint32_t)sFilterConfig->FilterMaskIdHigh) << 16U) |
 491              		.loc 1 574 0
 492 00fa 4C69     		ldr	r4, [r1, #20]
 575:Drivers/STM32F7xx_HAL_Driver/Src/stm32f7xx_hal_can.c ****         (0x0000FFFFU & (uint32_t)sFilterConfig->FilterMaskIdLow);
 493              		.loc 1 575 0
 494 00fc 45EA0645 		orr	r5, r5, r6, lsl #16
 574:Drivers/STM32F7xx_HAL_Driver/Src/stm32f7xx_hal_can.c ****         ((0x0000FFFFU & (uint32_t)sFilterConfig->FilterMaskIdHigh) << 16U) |
 495              		.loc 1 574 0
 496 0100 4834     		adds	r4, r4, #72
 497 0102 03EBC404 		add	r4, r3, r4, lsl #3
ARM GAS  /var/folders/_f/lv_lzyzs40z4gsrf231fdcyh0000gn/T//ccB3MVWE.s 			page 22


 498 0106 6560     		str	r5, [r4, #4]
 499 0108 BEE7     		b	.L42
 500              	.L43:
 588:Drivers/STM32F7xx_HAL_Driver/Src/stm32f7xx_hal_can.c ****     }
 501              		.loc 1 588 0
 502 010a D3F80442 		ldr	r4, [r3, #516]
 503 010e 1443     		orrs	r4, r4, r2
 504 0110 C3F80442 		str	r4, [r3, #516]
 505 0114 C0E7     		b	.L44
 506              	.L45:
 600:Drivers/STM32F7xx_HAL_Driver/Src/stm32f7xx_hal_can.c ****     }
 507              		.loc 1 600 0
 508 0116 D3F81402 		ldr	r0, [r3, #532]
 509 011a 1043     		orrs	r0, r0, r2
 510 011c C3F81402 		str	r0, [r3, #532]
 511 0120 C2E7     		b	.L46
 512              	.LVL28:
 513              	.L55:
 606:Drivers/STM32F7xx_HAL_Driver/Src/stm32f7xx_hal_can.c ****     }
 514              		.loc 1 606 0
 515 0122 D3F81C12 		ldr	r1, [r3, #540]
 516 0126 0A43     		orrs	r2, r2, r1
 517              	.LVL29:
 518 0128 C3F81C22 		str	r2, [r3, #540]
 519 012c BFE7     		b	.L47
 520              	.L57:
 521 012e 00BF     		.align	2
 522              	.L56:
 523 0130 00340040 		.word	1073755136
 524 0134 00640040 		.word	1073767424
 525              		.cfi_endproc
 526              	.LFE142:
 528              		.section	.text.HAL_CAN_Start,"ax",%progbits
 529              		.align	1
 530              		.global	HAL_CAN_Start
 531              		.syntax unified
 532              		.thumb
 533              		.thumb_func
 534              		.fpu fpv5-d16
 536              	HAL_CAN_Start:
 537              	.LFB143:
 623:Drivers/STM32F7xx_HAL_Driver/Src/stm32f7xx_hal_can.c **** 
 624:Drivers/STM32F7xx_HAL_Driver/Src/stm32f7xx_hal_can.c **** /**
 625:Drivers/STM32F7xx_HAL_Driver/Src/stm32f7xx_hal_can.c ****   * @}
 626:Drivers/STM32F7xx_HAL_Driver/Src/stm32f7xx_hal_can.c ****   */
 627:Drivers/STM32F7xx_HAL_Driver/Src/stm32f7xx_hal_can.c **** 
 628:Drivers/STM32F7xx_HAL_Driver/Src/stm32f7xx_hal_can.c **** /** @defgroup CAN_Exported_Functions_Group3 Control functions
 629:Drivers/STM32F7xx_HAL_Driver/Src/stm32f7xx_hal_can.c ****  *  @brief    Control functions
 630:Drivers/STM32F7xx_HAL_Driver/Src/stm32f7xx_hal_can.c ****  *
 631:Drivers/STM32F7xx_HAL_Driver/Src/stm32f7xx_hal_can.c **** @verbatim
 632:Drivers/STM32F7xx_HAL_Driver/Src/stm32f7xx_hal_can.c ****   ==============================================================================
 633:Drivers/STM32F7xx_HAL_Driver/Src/stm32f7xx_hal_can.c ****                       ##### Control functions #####
 634:Drivers/STM32F7xx_HAL_Driver/Src/stm32f7xx_hal_can.c ****   ==============================================================================
 635:Drivers/STM32F7xx_HAL_Driver/Src/stm32f7xx_hal_can.c ****     [..]  This section provides functions allowing to:
 636:Drivers/STM32F7xx_HAL_Driver/Src/stm32f7xx_hal_can.c ****       (+) HAL_CAN_Start                    : Start the CAN module
 637:Drivers/STM32F7xx_HAL_Driver/Src/stm32f7xx_hal_can.c ****       (+) HAL_CAN_Stop                     : Stop the CAN module
 638:Drivers/STM32F7xx_HAL_Driver/Src/stm32f7xx_hal_can.c ****       (+) HAL_CAN_RequestSleep             : Request sleep mode entry.
ARM GAS  /var/folders/_f/lv_lzyzs40z4gsrf231fdcyh0000gn/T//ccB3MVWE.s 			page 23


 639:Drivers/STM32F7xx_HAL_Driver/Src/stm32f7xx_hal_can.c ****       (+) HAL_CAN_WakeUp                   : Wake up from sleep mode.
 640:Drivers/STM32F7xx_HAL_Driver/Src/stm32f7xx_hal_can.c ****       (+) HAL_CAN_IsSleepActive            : Check is sleep mode is active.
 641:Drivers/STM32F7xx_HAL_Driver/Src/stm32f7xx_hal_can.c ****       (+) HAL_CAN_AddTxMessage             : Add a message to the Tx mailboxes
 642:Drivers/STM32F7xx_HAL_Driver/Src/stm32f7xx_hal_can.c ****                                              and activate the corresponding
 643:Drivers/STM32F7xx_HAL_Driver/Src/stm32f7xx_hal_can.c ****                                              transmission request
 644:Drivers/STM32F7xx_HAL_Driver/Src/stm32f7xx_hal_can.c ****       (+) HAL_CAN_AbortTxRequest           : Abort transmission request
 645:Drivers/STM32F7xx_HAL_Driver/Src/stm32f7xx_hal_can.c ****       (+) HAL_CAN_GetTxMailboxesFreeLevel  : Return Tx mailboxes free level
 646:Drivers/STM32F7xx_HAL_Driver/Src/stm32f7xx_hal_can.c ****       (+) HAL_CAN_IsTxMessagePending       : Check if a transmission request is
 647:Drivers/STM32F7xx_HAL_Driver/Src/stm32f7xx_hal_can.c ****                                              pending on the selected Tx mailbox
 648:Drivers/STM32F7xx_HAL_Driver/Src/stm32f7xx_hal_can.c ****       (+) HAL_CAN_GetRxMessage             : Get a CAN frame from the Rx FIFO
 649:Drivers/STM32F7xx_HAL_Driver/Src/stm32f7xx_hal_can.c ****       (+) HAL_CAN_GetRxFifoFillLevel       : Return Rx FIFO fill level
 650:Drivers/STM32F7xx_HAL_Driver/Src/stm32f7xx_hal_can.c **** 
 651:Drivers/STM32F7xx_HAL_Driver/Src/stm32f7xx_hal_can.c **** @endverbatim
 652:Drivers/STM32F7xx_HAL_Driver/Src/stm32f7xx_hal_can.c ****   * @{
 653:Drivers/STM32F7xx_HAL_Driver/Src/stm32f7xx_hal_can.c ****   */
 654:Drivers/STM32F7xx_HAL_Driver/Src/stm32f7xx_hal_can.c **** 
 655:Drivers/STM32F7xx_HAL_Driver/Src/stm32f7xx_hal_can.c **** /**
 656:Drivers/STM32F7xx_HAL_Driver/Src/stm32f7xx_hal_can.c ****   * @brief  Start the CAN module.
 657:Drivers/STM32F7xx_HAL_Driver/Src/stm32f7xx_hal_can.c ****   * @param  hcan pointer to an CAN_HandleTypeDef structure that contains
 658:Drivers/STM32F7xx_HAL_Driver/Src/stm32f7xx_hal_can.c ****   *         the configuration information for the specified CAN.
 659:Drivers/STM32F7xx_HAL_Driver/Src/stm32f7xx_hal_can.c ****   * @retval HAL status
 660:Drivers/STM32F7xx_HAL_Driver/Src/stm32f7xx_hal_can.c ****   */
 661:Drivers/STM32F7xx_HAL_Driver/Src/stm32f7xx_hal_can.c **** HAL_StatusTypeDef HAL_CAN_Start(CAN_HandleTypeDef *hcan)
 662:Drivers/STM32F7xx_HAL_Driver/Src/stm32f7xx_hal_can.c **** {
 538              		.loc 1 662 0
 539              		.cfi_startproc
 540              		@ args = 0, pretend = 0, frame = 0
 541              		@ frame_needed = 0, uses_anonymous_args = 0
 542              	.LVL30:
 543 0000 38B5     		push	{r3, r4, r5, lr}
 544              	.LCFI5:
 545              		.cfi_def_cfa_offset 16
 546              		.cfi_offset 3, -16
 547              		.cfi_offset 4, -12
 548              		.cfi_offset 5, -8
 549              		.cfi_offset 14, -4
 550              	.LVL31:
 663:Drivers/STM32F7xx_HAL_Driver/Src/stm32f7xx_hal_can.c ****   uint32_t tickstart = 0U;
 664:Drivers/STM32F7xx_HAL_Driver/Src/stm32f7xx_hal_can.c **** 
 665:Drivers/STM32F7xx_HAL_Driver/Src/stm32f7xx_hal_can.c ****   if (hcan->State == HAL_CAN_STATE_READY)
 551              		.loc 1 665 0
 552 0002 90F82030 		ldrb	r3, [r0, #32]	@ zero_extendqisi2
 553 0006 DBB2     		uxtb	r3, r3
 554 0008 012B     		cmp	r3, #1
 555 000a 05D0     		beq	.L64
 666:Drivers/STM32F7xx_HAL_Driver/Src/stm32f7xx_hal_can.c ****   {
 667:Drivers/STM32F7xx_HAL_Driver/Src/stm32f7xx_hal_can.c ****     /* Change CAN peripheral state */
 668:Drivers/STM32F7xx_HAL_Driver/Src/stm32f7xx_hal_can.c ****     hcan->State = HAL_CAN_STATE_LISTENING;
 669:Drivers/STM32F7xx_HAL_Driver/Src/stm32f7xx_hal_can.c **** 
 670:Drivers/STM32F7xx_HAL_Driver/Src/stm32f7xx_hal_can.c ****     /* Request leave initialisation */
 671:Drivers/STM32F7xx_HAL_Driver/Src/stm32f7xx_hal_can.c ****     CLEAR_BIT(hcan->Instance->MCR, CAN_MCR_INRQ);
 672:Drivers/STM32F7xx_HAL_Driver/Src/stm32f7xx_hal_can.c **** 
 673:Drivers/STM32F7xx_HAL_Driver/Src/stm32f7xx_hal_can.c ****     /* Get tick */
 674:Drivers/STM32F7xx_HAL_Driver/Src/stm32f7xx_hal_can.c ****     tickstart = HAL_GetTick();
 675:Drivers/STM32F7xx_HAL_Driver/Src/stm32f7xx_hal_can.c **** 
 676:Drivers/STM32F7xx_HAL_Driver/Src/stm32f7xx_hal_can.c ****     /* Wait the acknowledge */
 677:Drivers/STM32F7xx_HAL_Driver/Src/stm32f7xx_hal_can.c ****     while ((hcan->Instance->MSR & CAN_MSR_INAK) != RESET)
ARM GAS  /var/folders/_f/lv_lzyzs40z4gsrf231fdcyh0000gn/T//ccB3MVWE.s 			page 24


 678:Drivers/STM32F7xx_HAL_Driver/Src/stm32f7xx_hal_can.c ****     {
 679:Drivers/STM32F7xx_HAL_Driver/Src/stm32f7xx_hal_can.c ****       /* Check for the Timeout */
 680:Drivers/STM32F7xx_HAL_Driver/Src/stm32f7xx_hal_can.c ****       if ((HAL_GetTick() - tickstart) > CAN_TIMEOUT_VALUE)
 681:Drivers/STM32F7xx_HAL_Driver/Src/stm32f7xx_hal_can.c ****       {
 682:Drivers/STM32F7xx_HAL_Driver/Src/stm32f7xx_hal_can.c ****         /* Update error code */
 683:Drivers/STM32F7xx_HAL_Driver/Src/stm32f7xx_hal_can.c ****         hcan->ErrorCode |= HAL_CAN_ERROR_TIMEOUT;
 684:Drivers/STM32F7xx_HAL_Driver/Src/stm32f7xx_hal_can.c **** 
 685:Drivers/STM32F7xx_HAL_Driver/Src/stm32f7xx_hal_can.c ****         /* Change CAN state */
 686:Drivers/STM32F7xx_HAL_Driver/Src/stm32f7xx_hal_can.c ****         hcan->State = HAL_CAN_STATE_ERROR;
 687:Drivers/STM32F7xx_HAL_Driver/Src/stm32f7xx_hal_can.c **** 
 688:Drivers/STM32F7xx_HAL_Driver/Src/stm32f7xx_hal_can.c ****         return HAL_ERROR;
 689:Drivers/STM32F7xx_HAL_Driver/Src/stm32f7xx_hal_can.c ****       }
 690:Drivers/STM32F7xx_HAL_Driver/Src/stm32f7xx_hal_can.c ****     }
 691:Drivers/STM32F7xx_HAL_Driver/Src/stm32f7xx_hal_can.c **** 
 692:Drivers/STM32F7xx_HAL_Driver/Src/stm32f7xx_hal_can.c ****     /* Reset the CAN ErrorCode */
 693:Drivers/STM32F7xx_HAL_Driver/Src/stm32f7xx_hal_can.c ****     hcan->ErrorCode = HAL_CAN_ERROR_NONE;
 694:Drivers/STM32F7xx_HAL_Driver/Src/stm32f7xx_hal_can.c **** 
 695:Drivers/STM32F7xx_HAL_Driver/Src/stm32f7xx_hal_can.c ****     /* Return function status */
 696:Drivers/STM32F7xx_HAL_Driver/Src/stm32f7xx_hal_can.c ****     return HAL_OK;
 697:Drivers/STM32F7xx_HAL_Driver/Src/stm32f7xx_hal_can.c ****   }
 698:Drivers/STM32F7xx_HAL_Driver/Src/stm32f7xx_hal_can.c ****   else
 699:Drivers/STM32F7xx_HAL_Driver/Src/stm32f7xx_hal_can.c ****   {
 700:Drivers/STM32F7xx_HAL_Driver/Src/stm32f7xx_hal_can.c ****     /* Update error code */
 701:Drivers/STM32F7xx_HAL_Driver/Src/stm32f7xx_hal_can.c ****     hcan->ErrorCode |= HAL_CAN_ERROR_NOT_READY;
 556              		.loc 1 701 0
 557 000c 436A     		ldr	r3, [r0, #36]
 558 000e 43F40023 		orr	r3, r3, #524288
 559 0012 4362     		str	r3, [r0, #36]
 702:Drivers/STM32F7xx_HAL_Driver/Src/stm32f7xx_hal_can.c **** 
 703:Drivers/STM32F7xx_HAL_Driver/Src/stm32f7xx_hal_can.c ****     return HAL_ERROR;
 560              		.loc 1 703 0
 561 0014 0120     		movs	r0, #1
 562              	.LVL32:
 563              	.L61:
 704:Drivers/STM32F7xx_HAL_Driver/Src/stm32f7xx_hal_can.c ****   }
 705:Drivers/STM32F7xx_HAL_Driver/Src/stm32f7xx_hal_can.c **** }
 564              		.loc 1 705 0
 565 0016 38BD     		pop	{r3, r4, r5, pc}
 566              	.LVL33:
 567              	.L64:
 568 0018 0446     		mov	r4, r0
 668:Drivers/STM32F7xx_HAL_Driver/Src/stm32f7xx_hal_can.c **** 
 569              		.loc 1 668 0
 570 001a 0223     		movs	r3, #2
 571 001c 80F82030 		strb	r3, [r0, #32]
 671:Drivers/STM32F7xx_HAL_Driver/Src/stm32f7xx_hal_can.c **** 
 572              		.loc 1 671 0
 573 0020 0268     		ldr	r2, [r0]
 574 0022 1368     		ldr	r3, [r2]
 575 0024 23F00103 		bic	r3, r3, #1
 576 0028 1360     		str	r3, [r2]
 674:Drivers/STM32F7xx_HAL_Driver/Src/stm32f7xx_hal_can.c **** 
 577              		.loc 1 674 0
 578 002a FFF7FEFF 		bl	HAL_GetTick
 579              	.LVL34:
 580 002e 0546     		mov	r5, r0
 581              	.LVL35:
ARM GAS  /var/folders/_f/lv_lzyzs40z4gsrf231fdcyh0000gn/T//ccB3MVWE.s 			page 25


 582              	.L60:
 677:Drivers/STM32F7xx_HAL_Driver/Src/stm32f7xx_hal_can.c ****     {
 583              		.loc 1 677 0
 584 0030 2368     		ldr	r3, [r4]
 585 0032 5B68     		ldr	r3, [r3, #4]
 586 0034 13F0010F 		tst	r3, #1
 587 0038 0DD0     		beq	.L65
 680:Drivers/STM32F7xx_HAL_Driver/Src/stm32f7xx_hal_can.c ****       {
 588              		.loc 1 680 0
 589 003a FFF7FEFF 		bl	HAL_GetTick
 590              	.LVL36:
 591 003e 401B     		subs	r0, r0, r5
 592 0040 0A28     		cmp	r0, #10
 593 0042 F5D9     		bls	.L60
 683:Drivers/STM32F7xx_HAL_Driver/Src/stm32f7xx_hal_can.c **** 
 594              		.loc 1 683 0
 595 0044 636A     		ldr	r3, [r4, #36]
 596 0046 43F40033 		orr	r3, r3, #131072
 597 004a 6362     		str	r3, [r4, #36]
 686:Drivers/STM32F7xx_HAL_Driver/Src/stm32f7xx_hal_can.c **** 
 598              		.loc 1 686 0
 599 004c 0523     		movs	r3, #5
 600 004e 84F82030 		strb	r3, [r4, #32]
 688:Drivers/STM32F7xx_HAL_Driver/Src/stm32f7xx_hal_can.c ****       }
 601              		.loc 1 688 0
 602 0052 0120     		movs	r0, #1
 603 0054 DFE7     		b	.L61
 604              	.L65:
 693:Drivers/STM32F7xx_HAL_Driver/Src/stm32f7xx_hal_can.c **** 
 605              		.loc 1 693 0
 606 0056 0020     		movs	r0, #0
 607 0058 6062     		str	r0, [r4, #36]
 696:Drivers/STM32F7xx_HAL_Driver/Src/stm32f7xx_hal_can.c ****   }
 608              		.loc 1 696 0
 609 005a DCE7     		b	.L61
 610              		.cfi_endproc
 611              	.LFE143:
 613              		.section	.text.HAL_CAN_Stop,"ax",%progbits
 614              		.align	1
 615              		.global	HAL_CAN_Stop
 616              		.syntax unified
 617              		.thumb
 618              		.thumb_func
 619              		.fpu fpv5-d16
 621              	HAL_CAN_Stop:
 622              	.LFB144:
 706:Drivers/STM32F7xx_HAL_Driver/Src/stm32f7xx_hal_can.c **** 
 707:Drivers/STM32F7xx_HAL_Driver/Src/stm32f7xx_hal_can.c **** /**
 708:Drivers/STM32F7xx_HAL_Driver/Src/stm32f7xx_hal_can.c ****   * @brief  Stop the CAN module and enable access to configuration registers.
 709:Drivers/STM32F7xx_HAL_Driver/Src/stm32f7xx_hal_can.c ****   * @param  hcan pointer to an CAN_HandleTypeDef structure that contains
 710:Drivers/STM32F7xx_HAL_Driver/Src/stm32f7xx_hal_can.c ****   *         the configuration information for the specified CAN.
 711:Drivers/STM32F7xx_HAL_Driver/Src/stm32f7xx_hal_can.c ****   * @retval HAL status
 712:Drivers/STM32F7xx_HAL_Driver/Src/stm32f7xx_hal_can.c ****   */
 713:Drivers/STM32F7xx_HAL_Driver/Src/stm32f7xx_hal_can.c **** HAL_StatusTypeDef HAL_CAN_Stop(CAN_HandleTypeDef *hcan)
 714:Drivers/STM32F7xx_HAL_Driver/Src/stm32f7xx_hal_can.c **** {
 623              		.loc 1 714 0
 624              		.cfi_startproc
ARM GAS  /var/folders/_f/lv_lzyzs40z4gsrf231fdcyh0000gn/T//ccB3MVWE.s 			page 26


 625              		@ args = 0, pretend = 0, frame = 0
 626              		@ frame_needed = 0, uses_anonymous_args = 0
 627              	.LVL37:
 628 0000 38B5     		push	{r3, r4, r5, lr}
 629              	.LCFI6:
 630              		.cfi_def_cfa_offset 16
 631              		.cfi_offset 3, -16
 632              		.cfi_offset 4, -12
 633              		.cfi_offset 5, -8
 634              		.cfi_offset 14, -4
 635              	.LVL38:
 715:Drivers/STM32F7xx_HAL_Driver/Src/stm32f7xx_hal_can.c ****   uint32_t tickstart = 0U;
 716:Drivers/STM32F7xx_HAL_Driver/Src/stm32f7xx_hal_can.c **** 
 717:Drivers/STM32F7xx_HAL_Driver/Src/stm32f7xx_hal_can.c ****   if (hcan->State == HAL_CAN_STATE_LISTENING)
 636              		.loc 1 717 0
 637 0002 90F82030 		ldrb	r3, [r0, #32]	@ zero_extendqisi2
 638 0006 DBB2     		uxtb	r3, r3
 639 0008 022B     		cmp	r3, #2
 640 000a 05D0     		beq	.L72
 718:Drivers/STM32F7xx_HAL_Driver/Src/stm32f7xx_hal_can.c ****   {
 719:Drivers/STM32F7xx_HAL_Driver/Src/stm32f7xx_hal_can.c ****     /* Request initialisation */
 720:Drivers/STM32F7xx_HAL_Driver/Src/stm32f7xx_hal_can.c ****     SET_BIT(hcan->Instance->MCR, CAN_MCR_INRQ);
 721:Drivers/STM32F7xx_HAL_Driver/Src/stm32f7xx_hal_can.c **** 
 722:Drivers/STM32F7xx_HAL_Driver/Src/stm32f7xx_hal_can.c ****     /* Get tick */
 723:Drivers/STM32F7xx_HAL_Driver/Src/stm32f7xx_hal_can.c ****     tickstart = HAL_GetTick();
 724:Drivers/STM32F7xx_HAL_Driver/Src/stm32f7xx_hal_can.c **** 
 725:Drivers/STM32F7xx_HAL_Driver/Src/stm32f7xx_hal_can.c ****     /* Wait the acknowledge */
 726:Drivers/STM32F7xx_HAL_Driver/Src/stm32f7xx_hal_can.c ****     while ((hcan->Instance->MSR & CAN_MSR_INAK) == RESET)
 727:Drivers/STM32F7xx_HAL_Driver/Src/stm32f7xx_hal_can.c ****     {
 728:Drivers/STM32F7xx_HAL_Driver/Src/stm32f7xx_hal_can.c ****       /* Check for the Timeout */
 729:Drivers/STM32F7xx_HAL_Driver/Src/stm32f7xx_hal_can.c ****       if ((HAL_GetTick() - tickstart) > CAN_TIMEOUT_VALUE)
 730:Drivers/STM32F7xx_HAL_Driver/Src/stm32f7xx_hal_can.c ****       {
 731:Drivers/STM32F7xx_HAL_Driver/Src/stm32f7xx_hal_can.c ****         /* Update error code */
 732:Drivers/STM32F7xx_HAL_Driver/Src/stm32f7xx_hal_can.c ****         hcan->ErrorCode |= HAL_CAN_ERROR_TIMEOUT;
 733:Drivers/STM32F7xx_HAL_Driver/Src/stm32f7xx_hal_can.c **** 
 734:Drivers/STM32F7xx_HAL_Driver/Src/stm32f7xx_hal_can.c ****         /* Change CAN state */
 735:Drivers/STM32F7xx_HAL_Driver/Src/stm32f7xx_hal_can.c ****         hcan->State = HAL_CAN_STATE_ERROR;
 736:Drivers/STM32F7xx_HAL_Driver/Src/stm32f7xx_hal_can.c **** 
 737:Drivers/STM32F7xx_HAL_Driver/Src/stm32f7xx_hal_can.c ****         return HAL_ERROR;
 738:Drivers/STM32F7xx_HAL_Driver/Src/stm32f7xx_hal_can.c ****       }
 739:Drivers/STM32F7xx_HAL_Driver/Src/stm32f7xx_hal_can.c ****     }
 740:Drivers/STM32F7xx_HAL_Driver/Src/stm32f7xx_hal_can.c **** 
 741:Drivers/STM32F7xx_HAL_Driver/Src/stm32f7xx_hal_can.c ****     /* Exit from sleep mode */
 742:Drivers/STM32F7xx_HAL_Driver/Src/stm32f7xx_hal_can.c ****     CLEAR_BIT(hcan->Instance->MCR, CAN_MCR_SLEEP);
 743:Drivers/STM32F7xx_HAL_Driver/Src/stm32f7xx_hal_can.c **** 
 744:Drivers/STM32F7xx_HAL_Driver/Src/stm32f7xx_hal_can.c ****     /* Change CAN peripheral state */
 745:Drivers/STM32F7xx_HAL_Driver/Src/stm32f7xx_hal_can.c ****     hcan->State = HAL_CAN_STATE_READY;
 746:Drivers/STM32F7xx_HAL_Driver/Src/stm32f7xx_hal_can.c **** 
 747:Drivers/STM32F7xx_HAL_Driver/Src/stm32f7xx_hal_can.c ****     /* Return function status */
 748:Drivers/STM32F7xx_HAL_Driver/Src/stm32f7xx_hal_can.c ****     return HAL_OK;
 749:Drivers/STM32F7xx_HAL_Driver/Src/stm32f7xx_hal_can.c ****   }
 750:Drivers/STM32F7xx_HAL_Driver/Src/stm32f7xx_hal_can.c ****   else
 751:Drivers/STM32F7xx_HAL_Driver/Src/stm32f7xx_hal_can.c ****   {
 752:Drivers/STM32F7xx_HAL_Driver/Src/stm32f7xx_hal_can.c ****     /* Update error code */
 753:Drivers/STM32F7xx_HAL_Driver/Src/stm32f7xx_hal_can.c ****     hcan->ErrorCode |= HAL_CAN_ERROR_NOT_STARTED;
 641              		.loc 1 753 0
 642 000c 436A     		ldr	r3, [r0, #36]
ARM GAS  /var/folders/_f/lv_lzyzs40z4gsrf231fdcyh0000gn/T//ccB3MVWE.s 			page 27


 643 000e 43F48013 		orr	r3, r3, #1048576
 644 0012 4362     		str	r3, [r0, #36]
 754:Drivers/STM32F7xx_HAL_Driver/Src/stm32f7xx_hal_can.c **** 
 755:Drivers/STM32F7xx_HAL_Driver/Src/stm32f7xx_hal_can.c ****     return HAL_ERROR;
 645              		.loc 1 755 0
 646 0014 0120     		movs	r0, #1
 647              	.LVL39:
 648              	.L69:
 756:Drivers/STM32F7xx_HAL_Driver/Src/stm32f7xx_hal_can.c ****   }
 757:Drivers/STM32F7xx_HAL_Driver/Src/stm32f7xx_hal_can.c **** }
 649              		.loc 1 757 0
 650 0016 38BD     		pop	{r3, r4, r5, pc}
 651              	.LVL40:
 652              	.L72:
 653 0018 0446     		mov	r4, r0
 720:Drivers/STM32F7xx_HAL_Driver/Src/stm32f7xx_hal_can.c **** 
 654              		.loc 1 720 0
 655 001a 0268     		ldr	r2, [r0]
 656 001c 1368     		ldr	r3, [r2]
 657 001e 43F00103 		orr	r3, r3, #1
 658 0022 1360     		str	r3, [r2]
 723:Drivers/STM32F7xx_HAL_Driver/Src/stm32f7xx_hal_can.c **** 
 659              		.loc 1 723 0
 660 0024 FFF7FEFF 		bl	HAL_GetTick
 661              	.LVL41:
 662 0028 0546     		mov	r5, r0
 663              	.LVL42:
 664              	.L68:
 726:Drivers/STM32F7xx_HAL_Driver/Src/stm32f7xx_hal_can.c ****     {
 665              		.loc 1 726 0
 666 002a 2368     		ldr	r3, [r4]
 667 002c 5A68     		ldr	r2, [r3, #4]
 668 002e 12F0010F 		tst	r2, #1
 669 0032 0DD1     		bne	.L73
 729:Drivers/STM32F7xx_HAL_Driver/Src/stm32f7xx_hal_can.c ****       {
 670              		.loc 1 729 0
 671 0034 FFF7FEFF 		bl	HAL_GetTick
 672              	.LVL43:
 673 0038 401B     		subs	r0, r0, r5
 674 003a 0A28     		cmp	r0, #10
 675 003c F5D9     		bls	.L68
 732:Drivers/STM32F7xx_HAL_Driver/Src/stm32f7xx_hal_can.c **** 
 676              		.loc 1 732 0
 677 003e 636A     		ldr	r3, [r4, #36]
 678 0040 43F40033 		orr	r3, r3, #131072
 679 0044 6362     		str	r3, [r4, #36]
 735:Drivers/STM32F7xx_HAL_Driver/Src/stm32f7xx_hal_can.c **** 
 680              		.loc 1 735 0
 681 0046 0523     		movs	r3, #5
 682 0048 84F82030 		strb	r3, [r4, #32]
 737:Drivers/STM32F7xx_HAL_Driver/Src/stm32f7xx_hal_can.c ****       }
 683              		.loc 1 737 0
 684 004c 0120     		movs	r0, #1
 685 004e E2E7     		b	.L69
 686              	.L73:
 742:Drivers/STM32F7xx_HAL_Driver/Src/stm32f7xx_hal_can.c **** 
 687              		.loc 1 742 0
ARM GAS  /var/folders/_f/lv_lzyzs40z4gsrf231fdcyh0000gn/T//ccB3MVWE.s 			page 28


 688 0050 1A68     		ldr	r2, [r3]
 689 0052 22F00202 		bic	r2, r2, #2
 690 0056 1A60     		str	r2, [r3]
 745:Drivers/STM32F7xx_HAL_Driver/Src/stm32f7xx_hal_can.c **** 
 691              		.loc 1 745 0
 692 0058 0123     		movs	r3, #1
 693 005a 84F82030 		strb	r3, [r4, #32]
 748:Drivers/STM32F7xx_HAL_Driver/Src/stm32f7xx_hal_can.c ****   }
 694              		.loc 1 748 0
 695 005e 0020     		movs	r0, #0
 696 0060 D9E7     		b	.L69
 697              		.cfi_endproc
 698              	.LFE144:
 700              		.section	.text.HAL_CAN_DeInit,"ax",%progbits
 701              		.align	1
 702              		.global	HAL_CAN_DeInit
 703              		.syntax unified
 704              		.thumb
 705              		.thumb_func
 706              		.fpu fpv5-d16
 708              	HAL_CAN_DeInit:
 709              	.LFB139:
 379:Drivers/STM32F7xx_HAL_Driver/Src/stm32f7xx_hal_can.c ****   /* Check CAN handle */
 710              		.loc 1 379 0
 711              		.cfi_startproc
 712              		@ args = 0, pretend = 0, frame = 0
 713              		@ frame_needed = 0, uses_anonymous_args = 0
 714              	.LVL44:
 381:Drivers/STM32F7xx_HAL_Driver/Src/stm32f7xx_hal_can.c ****   {
 715              		.loc 1 381 0
 716 0000 80B1     		cbz	r0, .L76
 379:Drivers/STM32F7xx_HAL_Driver/Src/stm32f7xx_hal_can.c ****   /* Check CAN handle */
 717              		.loc 1 379 0
 718 0002 10B5     		push	{r4, lr}
 719              	.LCFI7:
 720              		.cfi_def_cfa_offset 8
 721              		.cfi_offset 4, -8
 722              		.cfi_offset 14, -4
 723 0004 0446     		mov	r4, r0
 390:Drivers/STM32F7xx_HAL_Driver/Src/stm32f7xx_hal_can.c **** 
 724              		.loc 1 390 0
 725 0006 FFF7FEFF 		bl	HAL_CAN_Stop
 726              	.LVL45:
 393:Drivers/STM32F7xx_HAL_Driver/Src/stm32f7xx_hal_can.c **** 
 727              		.loc 1 393 0
 728 000a 2046     		mov	r0, r4
 729 000c FFF7FEFF 		bl	HAL_CAN_MspDeInit
 730              	.LVL46:
 396:Drivers/STM32F7xx_HAL_Driver/Src/stm32f7xx_hal_can.c **** 
 731              		.loc 1 396 0
 732 0010 2268     		ldr	r2, [r4]
 733 0012 1368     		ldr	r3, [r2]
 734 0014 43F40043 		orr	r3, r3, #32768
 735 0018 1360     		str	r3, [r2]
 399:Drivers/STM32F7xx_HAL_Driver/Src/stm32f7xx_hal_can.c **** 
 736              		.loc 1 399 0
 737 001a 0020     		movs	r0, #0
ARM GAS  /var/folders/_f/lv_lzyzs40z4gsrf231fdcyh0000gn/T//ccB3MVWE.s 			page 29


 738 001c 6062     		str	r0, [r4, #36]
 402:Drivers/STM32F7xx_HAL_Driver/Src/stm32f7xx_hal_can.c **** 
 739              		.loc 1 402 0
 740 001e 84F82000 		strb	r0, [r4, #32]
 406:Drivers/STM32F7xx_HAL_Driver/Src/stm32f7xx_hal_can.c **** 
 741              		.loc 1 406 0
 742 0022 10BD     		pop	{r4, pc}
 743              	.LVL47:
 744              	.L76:
 745              	.LCFI8:
 746              		.cfi_def_cfa_offset 0
 747              		.cfi_restore 4
 748              		.cfi_restore 14
 383:Drivers/STM32F7xx_HAL_Driver/Src/stm32f7xx_hal_can.c ****   }
 749              		.loc 1 383 0
 750 0024 0120     		movs	r0, #1
 751              	.LVL48:
 406:Drivers/STM32F7xx_HAL_Driver/Src/stm32f7xx_hal_can.c **** 
 752              		.loc 1 406 0
 753 0026 7047     		bx	lr
 754              		.cfi_endproc
 755              	.LFE139:
 757              		.section	.text.HAL_CAN_RequestSleep,"ax",%progbits
 758              		.align	1
 759              		.global	HAL_CAN_RequestSleep
 760              		.syntax unified
 761              		.thumb
 762              		.thumb_func
 763              		.fpu fpv5-d16
 765              	HAL_CAN_RequestSleep:
 766              	.LFB145:
 758:Drivers/STM32F7xx_HAL_Driver/Src/stm32f7xx_hal_can.c **** 
 759:Drivers/STM32F7xx_HAL_Driver/Src/stm32f7xx_hal_can.c **** /**
 760:Drivers/STM32F7xx_HAL_Driver/Src/stm32f7xx_hal_can.c ****   * @brief  Request the sleep mode (low power) entry.
 761:Drivers/STM32F7xx_HAL_Driver/Src/stm32f7xx_hal_can.c ****   *         When returning from this function, Sleep mode will be entered
 762:Drivers/STM32F7xx_HAL_Driver/Src/stm32f7xx_hal_can.c ****   *         as soon as the current CAN activity (transmission or reception
 763:Drivers/STM32F7xx_HAL_Driver/Src/stm32f7xx_hal_can.c ****   *         of a CAN frame) has been completed.
 764:Drivers/STM32F7xx_HAL_Driver/Src/stm32f7xx_hal_can.c ****   * @param  hcan pointer to a CAN_HandleTypeDef structure that contains
 765:Drivers/STM32F7xx_HAL_Driver/Src/stm32f7xx_hal_can.c ****   *         the configuration information for the specified CAN.
 766:Drivers/STM32F7xx_HAL_Driver/Src/stm32f7xx_hal_can.c ****   * @retval HAL status.
 767:Drivers/STM32F7xx_HAL_Driver/Src/stm32f7xx_hal_can.c ****   */
 768:Drivers/STM32F7xx_HAL_Driver/Src/stm32f7xx_hal_can.c **** HAL_StatusTypeDef HAL_CAN_RequestSleep(CAN_HandleTypeDef *hcan)
 769:Drivers/STM32F7xx_HAL_Driver/Src/stm32f7xx_hal_can.c **** {
 767              		.loc 1 769 0
 768              		.cfi_startproc
 769              		@ args = 0, pretend = 0, frame = 0
 770              		@ frame_needed = 0, uses_anonymous_args = 0
 771              		@ link register save eliminated.
 772              	.LVL49:
 770:Drivers/STM32F7xx_HAL_Driver/Src/stm32f7xx_hal_can.c ****   if ((hcan->State == HAL_CAN_STATE_READY) ||
 773              		.loc 1 770 0
 774 0000 90F82030 		ldrb	r3, [r0, #32]	@ zero_extendqisi2
 775 0004 DBB2     		uxtb	r3, r3
 776 0006 012B     		cmp	r3, #1
 777 0008 0AD0     		beq	.L82
 771:Drivers/STM32F7xx_HAL_Driver/Src/stm32f7xx_hal_can.c ****       (hcan->State == HAL_CAN_STATE_LISTENING))
 778              		.loc 1 771 0 discriminator 1
ARM GAS  /var/folders/_f/lv_lzyzs40z4gsrf231fdcyh0000gn/T//ccB3MVWE.s 			page 30


 779 000a 90F82030 		ldrb	r3, [r0, #32]	@ zero_extendqisi2
 780 000e DBB2     		uxtb	r3, r3
 770:Drivers/STM32F7xx_HAL_Driver/Src/stm32f7xx_hal_can.c ****   if ((hcan->State == HAL_CAN_STATE_READY) ||
 781              		.loc 1 770 0 discriminator 1
 782 0010 022B     		cmp	r3, #2
 783 0012 05D0     		beq	.L82
 772:Drivers/STM32F7xx_HAL_Driver/Src/stm32f7xx_hal_can.c ****   {
 773:Drivers/STM32F7xx_HAL_Driver/Src/stm32f7xx_hal_can.c ****     /* Request Sleep mode */
 774:Drivers/STM32F7xx_HAL_Driver/Src/stm32f7xx_hal_can.c ****     SET_BIT(hcan->Instance->MCR, CAN_MCR_SLEEP);
 775:Drivers/STM32F7xx_HAL_Driver/Src/stm32f7xx_hal_can.c **** 
 776:Drivers/STM32F7xx_HAL_Driver/Src/stm32f7xx_hal_can.c ****     /* Return function status */
 777:Drivers/STM32F7xx_HAL_Driver/Src/stm32f7xx_hal_can.c ****     return HAL_OK;
 778:Drivers/STM32F7xx_HAL_Driver/Src/stm32f7xx_hal_can.c ****   }
 779:Drivers/STM32F7xx_HAL_Driver/Src/stm32f7xx_hal_can.c ****   else
 780:Drivers/STM32F7xx_HAL_Driver/Src/stm32f7xx_hal_can.c ****   {
 781:Drivers/STM32F7xx_HAL_Driver/Src/stm32f7xx_hal_can.c ****     /* Update error code */
 782:Drivers/STM32F7xx_HAL_Driver/Src/stm32f7xx_hal_can.c ****     hcan->ErrorCode |= HAL_CAN_ERROR_NOT_INITIALIZED;
 784              		.loc 1 782 0
 785 0014 436A     		ldr	r3, [r0, #36]
 786 0016 43F48023 		orr	r3, r3, #262144
 787 001a 4362     		str	r3, [r0, #36]
 783:Drivers/STM32F7xx_HAL_Driver/Src/stm32f7xx_hal_can.c **** 
 784:Drivers/STM32F7xx_HAL_Driver/Src/stm32f7xx_hal_can.c ****     /* Return function status */
 785:Drivers/STM32F7xx_HAL_Driver/Src/stm32f7xx_hal_can.c ****     return HAL_ERROR;
 788              		.loc 1 785 0
 789 001c 0120     		movs	r0, #1
 790              	.LVL50:
 786:Drivers/STM32F7xx_HAL_Driver/Src/stm32f7xx_hal_can.c ****   }
 787:Drivers/STM32F7xx_HAL_Driver/Src/stm32f7xx_hal_can.c **** }
 791              		.loc 1 787 0
 792 001e 7047     		bx	lr
 793              	.LVL51:
 794              	.L82:
 774:Drivers/STM32F7xx_HAL_Driver/Src/stm32f7xx_hal_can.c **** 
 795              		.loc 1 774 0
 796 0020 0268     		ldr	r2, [r0]
 797 0022 1368     		ldr	r3, [r2]
 798 0024 43F00203 		orr	r3, r3, #2
 799 0028 1360     		str	r3, [r2]
 777:Drivers/STM32F7xx_HAL_Driver/Src/stm32f7xx_hal_can.c ****   }
 800              		.loc 1 777 0
 801 002a 0020     		movs	r0, #0
 802              	.LVL52:
 803 002c 7047     		bx	lr
 804              		.cfi_endproc
 805              	.LFE145:
 807              		.section	.text.HAL_CAN_WakeUp,"ax",%progbits
 808              		.align	1
 809              		.global	HAL_CAN_WakeUp
 810              		.syntax unified
 811              		.thumb
 812              		.thumb_func
 813              		.fpu fpv5-d16
 815              	HAL_CAN_WakeUp:
 816              	.LFB146:
 788:Drivers/STM32F7xx_HAL_Driver/Src/stm32f7xx_hal_can.c **** 
 789:Drivers/STM32F7xx_HAL_Driver/Src/stm32f7xx_hal_can.c **** /**
ARM GAS  /var/folders/_f/lv_lzyzs40z4gsrf231fdcyh0000gn/T//ccB3MVWE.s 			page 31


 790:Drivers/STM32F7xx_HAL_Driver/Src/stm32f7xx_hal_can.c ****   * @brief  Wake up from sleep mode.
 791:Drivers/STM32F7xx_HAL_Driver/Src/stm32f7xx_hal_can.c ****   *         When returning with HAL_OK status from this function, Sleep mode
 792:Drivers/STM32F7xx_HAL_Driver/Src/stm32f7xx_hal_can.c ****   *         is exited.
 793:Drivers/STM32F7xx_HAL_Driver/Src/stm32f7xx_hal_can.c ****   * @param  hcan pointer to a CAN_HandleTypeDef structure that contains
 794:Drivers/STM32F7xx_HAL_Driver/Src/stm32f7xx_hal_can.c ****   *         the configuration information for the specified CAN.
 795:Drivers/STM32F7xx_HAL_Driver/Src/stm32f7xx_hal_can.c ****   * @retval HAL status.
 796:Drivers/STM32F7xx_HAL_Driver/Src/stm32f7xx_hal_can.c ****   */
 797:Drivers/STM32F7xx_HAL_Driver/Src/stm32f7xx_hal_can.c **** HAL_StatusTypeDef HAL_CAN_WakeUp(CAN_HandleTypeDef *hcan)
 798:Drivers/STM32F7xx_HAL_Driver/Src/stm32f7xx_hal_can.c **** {
 817              		.loc 1 798 0
 818              		.cfi_startproc
 819              		@ args = 0, pretend = 0, frame = 8
 820              		@ frame_needed = 0, uses_anonymous_args = 0
 821              		@ link register save eliminated.
 822              	.LVL53:
 823 0000 82B0     		sub	sp, sp, #8
 824              	.LCFI9:
 825              		.cfi_def_cfa_offset 8
 799:Drivers/STM32F7xx_HAL_Driver/Src/stm32f7xx_hal_can.c ****   __IO uint32_t count = 0;
 826              		.loc 1 799 0
 827 0002 0023     		movs	r3, #0
 828 0004 0193     		str	r3, [sp, #4]
 829              	.LVL54:
 800:Drivers/STM32F7xx_HAL_Driver/Src/stm32f7xx_hal_can.c ****   uint32_t timeout = 1000000U;
 801:Drivers/STM32F7xx_HAL_Driver/Src/stm32f7xx_hal_can.c **** 
 802:Drivers/STM32F7xx_HAL_Driver/Src/stm32f7xx_hal_can.c ****   if ((hcan->State == HAL_CAN_STATE_READY) ||
 830              		.loc 1 802 0
 831 0006 90F82030 		ldrb	r3, [r0, #32]	@ zero_extendqisi2
 832 000a DBB2     		uxtb	r3, r3
 833 000c 012B     		cmp	r3, #1
 834 000e 0BD0     		beq	.L86
 803:Drivers/STM32F7xx_HAL_Driver/Src/stm32f7xx_hal_can.c ****       (hcan->State == HAL_CAN_STATE_LISTENING))
 835              		.loc 1 803 0 discriminator 1
 836 0010 90F82030 		ldrb	r3, [r0, #32]	@ zero_extendqisi2
 837 0014 DBB2     		uxtb	r3, r3
 802:Drivers/STM32F7xx_HAL_Driver/Src/stm32f7xx_hal_can.c ****       (hcan->State == HAL_CAN_STATE_LISTENING))
 838              		.loc 1 802 0 discriminator 1
 839 0016 022B     		cmp	r3, #2
 840 0018 06D0     		beq	.L86
 804:Drivers/STM32F7xx_HAL_Driver/Src/stm32f7xx_hal_can.c ****   {
 805:Drivers/STM32F7xx_HAL_Driver/Src/stm32f7xx_hal_can.c ****     /* Wake up request */
 806:Drivers/STM32F7xx_HAL_Driver/Src/stm32f7xx_hal_can.c ****     CLEAR_BIT(hcan->Instance->MCR, CAN_MCR_SLEEP);
 807:Drivers/STM32F7xx_HAL_Driver/Src/stm32f7xx_hal_can.c **** 
 808:Drivers/STM32F7xx_HAL_Driver/Src/stm32f7xx_hal_can.c ****     /* Wait sleep mode is exited */
 809:Drivers/STM32F7xx_HAL_Driver/Src/stm32f7xx_hal_can.c ****     do
 810:Drivers/STM32F7xx_HAL_Driver/Src/stm32f7xx_hal_can.c ****     {
 811:Drivers/STM32F7xx_HAL_Driver/Src/stm32f7xx_hal_can.c ****       /* Check if timeout is reached */
 812:Drivers/STM32F7xx_HAL_Driver/Src/stm32f7xx_hal_can.c ****       if (++count > timeout)
 813:Drivers/STM32F7xx_HAL_Driver/Src/stm32f7xx_hal_can.c ****       {
 814:Drivers/STM32F7xx_HAL_Driver/Src/stm32f7xx_hal_can.c ****         /* Update error code */
 815:Drivers/STM32F7xx_HAL_Driver/Src/stm32f7xx_hal_can.c ****         hcan->ErrorCode |= HAL_CAN_ERROR_TIMEOUT;
 816:Drivers/STM32F7xx_HAL_Driver/Src/stm32f7xx_hal_can.c **** 
 817:Drivers/STM32F7xx_HAL_Driver/Src/stm32f7xx_hal_can.c ****         return HAL_ERROR;
 818:Drivers/STM32F7xx_HAL_Driver/Src/stm32f7xx_hal_can.c ****       }
 819:Drivers/STM32F7xx_HAL_Driver/Src/stm32f7xx_hal_can.c ****     }
 820:Drivers/STM32F7xx_HAL_Driver/Src/stm32f7xx_hal_can.c ****     while ((hcan->Instance->MSR & CAN_MSR_SLAK) != RESET);
 821:Drivers/STM32F7xx_HAL_Driver/Src/stm32f7xx_hal_can.c **** 
ARM GAS  /var/folders/_f/lv_lzyzs40z4gsrf231fdcyh0000gn/T//ccB3MVWE.s 			page 32


 822:Drivers/STM32F7xx_HAL_Driver/Src/stm32f7xx_hal_can.c ****     /* Return function status */
 823:Drivers/STM32F7xx_HAL_Driver/Src/stm32f7xx_hal_can.c ****     return HAL_OK;
 824:Drivers/STM32F7xx_HAL_Driver/Src/stm32f7xx_hal_can.c ****   }
 825:Drivers/STM32F7xx_HAL_Driver/Src/stm32f7xx_hal_can.c ****   else
 826:Drivers/STM32F7xx_HAL_Driver/Src/stm32f7xx_hal_can.c ****   {
 827:Drivers/STM32F7xx_HAL_Driver/Src/stm32f7xx_hal_can.c ****     /* Update error code */
 828:Drivers/STM32F7xx_HAL_Driver/Src/stm32f7xx_hal_can.c ****     hcan->ErrorCode |= HAL_CAN_ERROR_NOT_INITIALIZED;
 841              		.loc 1 828 0
 842 001a 436A     		ldr	r3, [r0, #36]
 843 001c 43F48023 		orr	r3, r3, #262144
 844 0020 4362     		str	r3, [r0, #36]
 829:Drivers/STM32F7xx_HAL_Driver/Src/stm32f7xx_hal_can.c **** 
 830:Drivers/STM32F7xx_HAL_Driver/Src/stm32f7xx_hal_can.c ****     return HAL_ERROR;
 845              		.loc 1 830 0
 846 0022 0120     		movs	r0, #1
 847              	.LVL55:
 848              	.L89:
 831:Drivers/STM32F7xx_HAL_Driver/Src/stm32f7xx_hal_can.c ****   }
 832:Drivers/STM32F7xx_HAL_Driver/Src/stm32f7xx_hal_can.c **** }
 849              		.loc 1 832 0
 850 0024 02B0     		add	sp, sp, #8
 851              	.LCFI10:
 852              		.cfi_remember_state
 853              		.cfi_def_cfa_offset 0
 854              		@ sp needed
 855 0026 7047     		bx	lr
 856              	.LVL56:
 857              	.L86:
 858              	.LCFI11:
 859              		.cfi_restore_state
 806:Drivers/STM32F7xx_HAL_Driver/Src/stm32f7xx_hal_can.c **** 
 860              		.loc 1 806 0
 861 0028 0268     		ldr	r2, [r0]
 862 002a 1368     		ldr	r3, [r2]
 863 002c 23F00203 		bic	r3, r3, #2
 864 0030 1360     		str	r3, [r2]
 865              	.L90:
 812:Drivers/STM32F7xx_HAL_Driver/Src/stm32f7xx_hal_can.c ****       {
 866              		.loc 1 812 0
 867 0032 019B     		ldr	r3, [sp, #4]
 868 0034 0133     		adds	r3, r3, #1
 869 0036 0193     		str	r3, [sp, #4]
 870 0038 074A     		ldr	r2, .L93
 871 003a 9342     		cmp	r3, r2
 872 003c 06D8     		bhi	.L92
 820:Drivers/STM32F7xx_HAL_Driver/Src/stm32f7xx_hal_can.c **** 
 873              		.loc 1 820 0
 874 003e 0368     		ldr	r3, [r0]
 875 0040 5B68     		ldr	r3, [r3, #4]
 876 0042 13F0020F 		tst	r3, #2
 877 0046 F4D1     		bne	.L90
 823:Drivers/STM32F7xx_HAL_Driver/Src/stm32f7xx_hal_can.c ****   }
 878              		.loc 1 823 0
 879 0048 0020     		movs	r0, #0
 880              	.LVL57:
 881 004a EBE7     		b	.L89
 882              	.LVL58:
ARM GAS  /var/folders/_f/lv_lzyzs40z4gsrf231fdcyh0000gn/T//ccB3MVWE.s 			page 33


 883              	.L92:
 815:Drivers/STM32F7xx_HAL_Driver/Src/stm32f7xx_hal_can.c **** 
 884              		.loc 1 815 0
 885 004c 436A     		ldr	r3, [r0, #36]
 886 004e 43F40033 		orr	r3, r3, #131072
 887 0052 4362     		str	r3, [r0, #36]
 817:Drivers/STM32F7xx_HAL_Driver/Src/stm32f7xx_hal_can.c ****       }
 888              		.loc 1 817 0
 889 0054 0120     		movs	r0, #1
 890              	.LVL59:
 891 0056 E5E7     		b	.L89
 892              	.L94:
 893              		.align	2
 894              	.L93:
 895 0058 40420F00 		.word	1000000
 896              		.cfi_endproc
 897              	.LFE146:
 899              		.section	.text.HAL_CAN_IsSleepActive,"ax",%progbits
 900              		.align	1
 901              		.global	HAL_CAN_IsSleepActive
 902              		.syntax unified
 903              		.thumb
 904              		.thumb_func
 905              		.fpu fpv5-d16
 907              	HAL_CAN_IsSleepActive:
 908              	.LFB147:
 833:Drivers/STM32F7xx_HAL_Driver/Src/stm32f7xx_hal_can.c **** 
 834:Drivers/STM32F7xx_HAL_Driver/Src/stm32f7xx_hal_can.c **** /**
 835:Drivers/STM32F7xx_HAL_Driver/Src/stm32f7xx_hal_can.c ****   * @brief  Check is sleep mode is active.
 836:Drivers/STM32F7xx_HAL_Driver/Src/stm32f7xx_hal_can.c ****   * @param  hcan pointer to a CAN_HandleTypeDef structure that contains
 837:Drivers/STM32F7xx_HAL_Driver/Src/stm32f7xx_hal_can.c ****   *         the configuration information for the specified CAN.
 838:Drivers/STM32F7xx_HAL_Driver/Src/stm32f7xx_hal_can.c ****   * @retval Status
 839:Drivers/STM32F7xx_HAL_Driver/Src/stm32f7xx_hal_can.c ****   *          - 0 : Sleep mode is not active.
 840:Drivers/STM32F7xx_HAL_Driver/Src/stm32f7xx_hal_can.c ****   *          - 1 : Sleep mode is active.
 841:Drivers/STM32F7xx_HAL_Driver/Src/stm32f7xx_hal_can.c ****   */
 842:Drivers/STM32F7xx_HAL_Driver/Src/stm32f7xx_hal_can.c **** uint32_t HAL_CAN_IsSleepActive(CAN_HandleTypeDef *hcan)
 843:Drivers/STM32F7xx_HAL_Driver/Src/stm32f7xx_hal_can.c **** {
 909              		.loc 1 843 0
 910              		.cfi_startproc
 911              		@ args = 0, pretend = 0, frame = 0
 912              		@ frame_needed = 0, uses_anonymous_args = 0
 913              		@ link register save eliminated.
 914              	.LVL60:
 844:Drivers/STM32F7xx_HAL_Driver/Src/stm32f7xx_hal_can.c ****   uint32_t status = 0U;
 845:Drivers/STM32F7xx_HAL_Driver/Src/stm32f7xx_hal_can.c **** 
 846:Drivers/STM32F7xx_HAL_Driver/Src/stm32f7xx_hal_can.c ****   if ((hcan->State == HAL_CAN_STATE_READY) ||
 915              		.loc 1 846 0
 916 0000 90F82030 		ldrb	r3, [r0, #32]	@ zero_extendqisi2
 917 0004 DBB2     		uxtb	r3, r3
 918 0006 012B     		cmp	r3, #1
 919 0008 06D0     		beq	.L96
 847:Drivers/STM32F7xx_HAL_Driver/Src/stm32f7xx_hal_can.c ****       (hcan->State == HAL_CAN_STATE_LISTENING))
 920              		.loc 1 847 0 discriminator 1
 921 000a 90F82030 		ldrb	r3, [r0, #32]	@ zero_extendqisi2
 922 000e DBB2     		uxtb	r3, r3
 846:Drivers/STM32F7xx_HAL_Driver/Src/stm32f7xx_hal_can.c ****       (hcan->State == HAL_CAN_STATE_LISTENING))
 923              		.loc 1 846 0 discriminator 1
ARM GAS  /var/folders/_f/lv_lzyzs40z4gsrf231fdcyh0000gn/T//ccB3MVWE.s 			page 34


 924 0010 022B     		cmp	r3, #2
 925 0012 01D0     		beq	.L96
 844:Drivers/STM32F7xx_HAL_Driver/Src/stm32f7xx_hal_can.c ****   uint32_t status = 0U;
 926              		.loc 1 844 0
 927 0014 0020     		movs	r0, #0
 928              	.LVL61:
 929 0016 7047     		bx	lr
 930              	.LVL62:
 931              	.L96:
 848:Drivers/STM32F7xx_HAL_Driver/Src/stm32f7xx_hal_can.c ****   {
 849:Drivers/STM32F7xx_HAL_Driver/Src/stm32f7xx_hal_can.c ****     /* Check Sleep mode */
 850:Drivers/STM32F7xx_HAL_Driver/Src/stm32f7xx_hal_can.c ****     if ((hcan->Instance->MSR & CAN_MSR_SLAK) != RESET)
 932              		.loc 1 850 0
 933 0018 0368     		ldr	r3, [r0]
 934 001a 5B68     		ldr	r3, [r3, #4]
 935 001c 13F0020F 		tst	r3, #2
 936 0020 01D0     		beq	.L100
 851:Drivers/STM32F7xx_HAL_Driver/Src/stm32f7xx_hal_can.c ****     {
 852:Drivers/STM32F7xx_HAL_Driver/Src/stm32f7xx_hal_can.c ****       status = 1U;
 937              		.loc 1 852 0
 938 0022 0120     		movs	r0, #1
 939              	.LVL63:
 853:Drivers/STM32F7xx_HAL_Driver/Src/stm32f7xx_hal_can.c ****     }
 854:Drivers/STM32F7xx_HAL_Driver/Src/stm32f7xx_hal_can.c ****   }
 855:Drivers/STM32F7xx_HAL_Driver/Src/stm32f7xx_hal_can.c **** 
 856:Drivers/STM32F7xx_HAL_Driver/Src/stm32f7xx_hal_can.c ****   /* Return function status */
 857:Drivers/STM32F7xx_HAL_Driver/Src/stm32f7xx_hal_can.c ****   return status;
 858:Drivers/STM32F7xx_HAL_Driver/Src/stm32f7xx_hal_can.c **** }
 940              		.loc 1 858 0
 941 0024 7047     		bx	lr
 942              	.LVL64:
 943              	.L100:
 844:Drivers/STM32F7xx_HAL_Driver/Src/stm32f7xx_hal_can.c **** 
 944              		.loc 1 844 0
 945 0026 0020     		movs	r0, #0
 946              	.LVL65:
 947 0028 7047     		bx	lr
 948              		.cfi_endproc
 949              	.LFE147:
 951              		.section	.text.HAL_CAN_AddTxMessage,"ax",%progbits
 952              		.align	1
 953              		.global	HAL_CAN_AddTxMessage
 954              		.syntax unified
 955              		.thumb
 956              		.thumb_func
 957              		.fpu fpv5-d16
 959              	HAL_CAN_AddTxMessage:
 960              	.LFB148:
 859:Drivers/STM32F7xx_HAL_Driver/Src/stm32f7xx_hal_can.c **** 
 860:Drivers/STM32F7xx_HAL_Driver/Src/stm32f7xx_hal_can.c **** /**
 861:Drivers/STM32F7xx_HAL_Driver/Src/stm32f7xx_hal_can.c ****   * @brief  Add a message to the first free Tx mailbox and activate the
 862:Drivers/STM32F7xx_HAL_Driver/Src/stm32f7xx_hal_can.c ****   *         corresponding transmission request.
 863:Drivers/STM32F7xx_HAL_Driver/Src/stm32f7xx_hal_can.c ****   * @param  hcan pointer to a CAN_HandleTypeDef structure that contains
 864:Drivers/STM32F7xx_HAL_Driver/Src/stm32f7xx_hal_can.c ****   *         the configuration information for the specified CAN.
 865:Drivers/STM32F7xx_HAL_Driver/Src/stm32f7xx_hal_can.c ****   * @param  pHeader pointer to a CAN_TxHeaderTypeDef structure.
 866:Drivers/STM32F7xx_HAL_Driver/Src/stm32f7xx_hal_can.c ****   * @param  aData array containing the payload of the Tx frame.
 867:Drivers/STM32F7xx_HAL_Driver/Src/stm32f7xx_hal_can.c ****   * @param  pTxMailbox pointer to a variable where the function will return
ARM GAS  /var/folders/_f/lv_lzyzs40z4gsrf231fdcyh0000gn/T//ccB3MVWE.s 			page 35


 868:Drivers/STM32F7xx_HAL_Driver/Src/stm32f7xx_hal_can.c ****   *         the TxMailbox used to store the Tx message.
 869:Drivers/STM32F7xx_HAL_Driver/Src/stm32f7xx_hal_can.c ****   *         This parameter can be a value of @arg CAN_Tx_Mailboxes.
 870:Drivers/STM32F7xx_HAL_Driver/Src/stm32f7xx_hal_can.c ****   * @retval HAL status
 871:Drivers/STM32F7xx_HAL_Driver/Src/stm32f7xx_hal_can.c ****   */
 872:Drivers/STM32F7xx_HAL_Driver/Src/stm32f7xx_hal_can.c **** HAL_StatusTypeDef HAL_CAN_AddTxMessage(CAN_HandleTypeDef *hcan, CAN_TxHeaderTypeDef *pHeader, uint8
 873:Drivers/STM32F7xx_HAL_Driver/Src/stm32f7xx_hal_can.c **** {
 961              		.loc 1 873 0
 962              		.cfi_startproc
 963              		@ args = 0, pretend = 0, frame = 0
 964              		@ frame_needed = 0, uses_anonymous_args = 0
 965              		@ link register save eliminated.
 966              	.LVL66:
 967 0000 70B4     		push	{r4, r5, r6}
 968              	.LCFI12:
 969              		.cfi_def_cfa_offset 12
 970              		.cfi_offset 4, -12
 971              		.cfi_offset 5, -8
 972              		.cfi_offset 6, -4
 874:Drivers/STM32F7xx_HAL_Driver/Src/stm32f7xx_hal_can.c ****   uint32_t transmitmailbox;
 875:Drivers/STM32F7xx_HAL_Driver/Src/stm32f7xx_hal_can.c **** 
 876:Drivers/STM32F7xx_HAL_Driver/Src/stm32f7xx_hal_can.c ****   /* Check the parameters */
 877:Drivers/STM32F7xx_HAL_Driver/Src/stm32f7xx_hal_can.c ****   assert_param(IS_CAN_IDTYPE(pHeader->IDE));
 878:Drivers/STM32F7xx_HAL_Driver/Src/stm32f7xx_hal_can.c ****   assert_param(IS_CAN_RTR(pHeader->RTR));
 879:Drivers/STM32F7xx_HAL_Driver/Src/stm32f7xx_hal_can.c ****   assert_param(IS_CAN_DLC(pHeader->DLC));
 880:Drivers/STM32F7xx_HAL_Driver/Src/stm32f7xx_hal_can.c ****   if (pHeader->IDE == CAN_ID_STD)
 881:Drivers/STM32F7xx_HAL_Driver/Src/stm32f7xx_hal_can.c ****   {
 882:Drivers/STM32F7xx_HAL_Driver/Src/stm32f7xx_hal_can.c ****     assert_param(IS_CAN_STDID(pHeader->StdId));
 883:Drivers/STM32F7xx_HAL_Driver/Src/stm32f7xx_hal_can.c ****   }
 884:Drivers/STM32F7xx_HAL_Driver/Src/stm32f7xx_hal_can.c ****   else
 885:Drivers/STM32F7xx_HAL_Driver/Src/stm32f7xx_hal_can.c ****   {
 886:Drivers/STM32F7xx_HAL_Driver/Src/stm32f7xx_hal_can.c ****     assert_param(IS_CAN_EXTID(pHeader->ExtId));
 887:Drivers/STM32F7xx_HAL_Driver/Src/stm32f7xx_hal_can.c ****   }
 888:Drivers/STM32F7xx_HAL_Driver/Src/stm32f7xx_hal_can.c ****   assert_param(IS_FUNCTIONAL_STATE(pHeader->TransmitGlobalTime));
 889:Drivers/STM32F7xx_HAL_Driver/Src/stm32f7xx_hal_can.c **** 
 890:Drivers/STM32F7xx_HAL_Driver/Src/stm32f7xx_hal_can.c ****   if ((hcan->State == HAL_CAN_STATE_READY) ||
 973              		.loc 1 890 0
 974 0002 90F82040 		ldrb	r4, [r0, #32]	@ zero_extendqisi2
 975 0006 E4B2     		uxtb	r4, r4
 976 0008 012C     		cmp	r4, #1
 977 000a 0AD0     		beq	.L102
 891:Drivers/STM32F7xx_HAL_Driver/Src/stm32f7xx_hal_can.c ****       (hcan->State == HAL_CAN_STATE_LISTENING))
 978              		.loc 1 891 0 discriminator 1
 979 000c 90F82040 		ldrb	r4, [r0, #32]	@ zero_extendqisi2
 980 0010 E4B2     		uxtb	r4, r4
 890:Drivers/STM32F7xx_HAL_Driver/Src/stm32f7xx_hal_can.c ****       (hcan->State == HAL_CAN_STATE_LISTENING))
 981              		.loc 1 890 0 discriminator 1
 982 0012 022C     		cmp	r4, #2
 983 0014 05D0     		beq	.L102
 892:Drivers/STM32F7xx_HAL_Driver/Src/stm32f7xx_hal_can.c ****   {
 893:Drivers/STM32F7xx_HAL_Driver/Src/stm32f7xx_hal_can.c ****     /* Check that all the Tx mailboxes are not full */
 894:Drivers/STM32F7xx_HAL_Driver/Src/stm32f7xx_hal_can.c ****     if (((hcan->Instance->TSR & CAN_TSR_TME0) != RESET) ||
 895:Drivers/STM32F7xx_HAL_Driver/Src/stm32f7xx_hal_can.c ****         ((hcan->Instance->TSR & CAN_TSR_TME1) != RESET) ||
 896:Drivers/STM32F7xx_HAL_Driver/Src/stm32f7xx_hal_can.c ****         ((hcan->Instance->TSR & CAN_TSR_TME2) != RESET))
 897:Drivers/STM32F7xx_HAL_Driver/Src/stm32f7xx_hal_can.c ****     {
 898:Drivers/STM32F7xx_HAL_Driver/Src/stm32f7xx_hal_can.c ****       /* Select an empty transmit mailbox */
 899:Drivers/STM32F7xx_HAL_Driver/Src/stm32f7xx_hal_can.c ****       transmitmailbox = (hcan->Instance->TSR & CAN_TSR_CODE) >> CAN_TSR_CODE_Pos;
 900:Drivers/STM32F7xx_HAL_Driver/Src/stm32f7xx_hal_can.c **** 
ARM GAS  /var/folders/_f/lv_lzyzs40z4gsrf231fdcyh0000gn/T//ccB3MVWE.s 			page 36


 901:Drivers/STM32F7xx_HAL_Driver/Src/stm32f7xx_hal_can.c ****       /* Store the Tx mailbox */
 902:Drivers/STM32F7xx_HAL_Driver/Src/stm32f7xx_hal_can.c ****       *pTxMailbox = 1U << transmitmailbox;
 903:Drivers/STM32F7xx_HAL_Driver/Src/stm32f7xx_hal_can.c **** 
 904:Drivers/STM32F7xx_HAL_Driver/Src/stm32f7xx_hal_can.c ****       /* Set up the Id */
 905:Drivers/STM32F7xx_HAL_Driver/Src/stm32f7xx_hal_can.c ****       if (pHeader->IDE == CAN_ID_STD)
 906:Drivers/STM32F7xx_HAL_Driver/Src/stm32f7xx_hal_can.c ****       {
 907:Drivers/STM32F7xx_HAL_Driver/Src/stm32f7xx_hal_can.c ****         hcan->Instance->sTxMailBox[transmitmailbox].TIR = ((pHeader->StdId << CAN_TI0R_STID_Pos) |
 908:Drivers/STM32F7xx_HAL_Driver/Src/stm32f7xx_hal_can.c ****                                                            pHeader->RTR);
 909:Drivers/STM32F7xx_HAL_Driver/Src/stm32f7xx_hal_can.c ****       }
 910:Drivers/STM32F7xx_HAL_Driver/Src/stm32f7xx_hal_can.c ****       else
 911:Drivers/STM32F7xx_HAL_Driver/Src/stm32f7xx_hal_can.c ****       {
 912:Drivers/STM32F7xx_HAL_Driver/Src/stm32f7xx_hal_can.c ****         hcan->Instance->sTxMailBox[transmitmailbox].TIR = ((pHeader->ExtId << CAN_TI0R_EXID_Pos) |
 913:Drivers/STM32F7xx_HAL_Driver/Src/stm32f7xx_hal_can.c ****                                                            pHeader->IDE |
 914:Drivers/STM32F7xx_HAL_Driver/Src/stm32f7xx_hal_can.c ****                                                            pHeader->RTR);
 915:Drivers/STM32F7xx_HAL_Driver/Src/stm32f7xx_hal_can.c ****       }
 916:Drivers/STM32F7xx_HAL_Driver/Src/stm32f7xx_hal_can.c **** 
 917:Drivers/STM32F7xx_HAL_Driver/Src/stm32f7xx_hal_can.c ****       /* Set up the DLC */
 918:Drivers/STM32F7xx_HAL_Driver/Src/stm32f7xx_hal_can.c ****       hcan->Instance->sTxMailBox[transmitmailbox].TDTR = (pHeader->DLC);
 919:Drivers/STM32F7xx_HAL_Driver/Src/stm32f7xx_hal_can.c **** 
 920:Drivers/STM32F7xx_HAL_Driver/Src/stm32f7xx_hal_can.c ****       /* Set up the Transmit Global Time mode */
 921:Drivers/STM32F7xx_HAL_Driver/Src/stm32f7xx_hal_can.c ****       if (pHeader->TransmitGlobalTime == ENABLE)
 922:Drivers/STM32F7xx_HAL_Driver/Src/stm32f7xx_hal_can.c ****       {
 923:Drivers/STM32F7xx_HAL_Driver/Src/stm32f7xx_hal_can.c ****         SET_BIT(hcan->Instance->sTxMailBox[transmitmailbox].TDTR, CAN_TDT0R_TGT);
 924:Drivers/STM32F7xx_HAL_Driver/Src/stm32f7xx_hal_can.c ****       }
 925:Drivers/STM32F7xx_HAL_Driver/Src/stm32f7xx_hal_can.c **** 
 926:Drivers/STM32F7xx_HAL_Driver/Src/stm32f7xx_hal_can.c ****       /* Set up the data field */
 927:Drivers/STM32F7xx_HAL_Driver/Src/stm32f7xx_hal_can.c ****       WRITE_REG(hcan->Instance->sTxMailBox[transmitmailbox].TDHR,
 928:Drivers/STM32F7xx_HAL_Driver/Src/stm32f7xx_hal_can.c ****                 ((uint32_t)aData[7] << CAN_TDH0R_DATA7_Pos) |
 929:Drivers/STM32F7xx_HAL_Driver/Src/stm32f7xx_hal_can.c ****                 ((uint32_t)aData[6] << CAN_TDH0R_DATA6_Pos) |
 930:Drivers/STM32F7xx_HAL_Driver/Src/stm32f7xx_hal_can.c ****                 ((uint32_t)aData[5] << CAN_TDH0R_DATA5_Pos) |
 931:Drivers/STM32F7xx_HAL_Driver/Src/stm32f7xx_hal_can.c ****                 ((uint32_t)aData[4] << CAN_TDH0R_DATA4_Pos));
 932:Drivers/STM32F7xx_HAL_Driver/Src/stm32f7xx_hal_can.c ****       WRITE_REG(hcan->Instance->sTxMailBox[transmitmailbox].TDLR,
 933:Drivers/STM32F7xx_HAL_Driver/Src/stm32f7xx_hal_can.c ****                 ((uint32_t)aData[3] << CAN_TDL0R_DATA3_Pos) |
 934:Drivers/STM32F7xx_HAL_Driver/Src/stm32f7xx_hal_can.c ****                 ((uint32_t)aData[2] << CAN_TDL0R_DATA2_Pos) |
 935:Drivers/STM32F7xx_HAL_Driver/Src/stm32f7xx_hal_can.c ****                 ((uint32_t)aData[1] << CAN_TDL0R_DATA1_Pos) |
 936:Drivers/STM32F7xx_HAL_Driver/Src/stm32f7xx_hal_can.c ****                 ((uint32_t)aData[0] << CAN_TDL0R_DATA0_Pos));
 937:Drivers/STM32F7xx_HAL_Driver/Src/stm32f7xx_hal_can.c **** 
 938:Drivers/STM32F7xx_HAL_Driver/Src/stm32f7xx_hal_can.c ****       /* Request transmission */
 939:Drivers/STM32F7xx_HAL_Driver/Src/stm32f7xx_hal_can.c ****       SET_BIT(hcan->Instance->sTxMailBox[transmitmailbox].TIR, CAN_TI0R_TXRQ);
 940:Drivers/STM32F7xx_HAL_Driver/Src/stm32f7xx_hal_can.c **** 
 941:Drivers/STM32F7xx_HAL_Driver/Src/stm32f7xx_hal_can.c ****       /* Return function status */
 942:Drivers/STM32F7xx_HAL_Driver/Src/stm32f7xx_hal_can.c ****       return HAL_OK;
 943:Drivers/STM32F7xx_HAL_Driver/Src/stm32f7xx_hal_can.c ****     }
 944:Drivers/STM32F7xx_HAL_Driver/Src/stm32f7xx_hal_can.c ****     else
 945:Drivers/STM32F7xx_HAL_Driver/Src/stm32f7xx_hal_can.c ****     {
 946:Drivers/STM32F7xx_HAL_Driver/Src/stm32f7xx_hal_can.c ****       /* Update error code */
 947:Drivers/STM32F7xx_HAL_Driver/Src/stm32f7xx_hal_can.c ****       hcan->ErrorCode |= HAL_CAN_ERROR_PARAM;
 948:Drivers/STM32F7xx_HAL_Driver/Src/stm32f7xx_hal_can.c **** 
 949:Drivers/STM32F7xx_HAL_Driver/Src/stm32f7xx_hal_can.c ****       return HAL_ERROR;
 950:Drivers/STM32F7xx_HAL_Driver/Src/stm32f7xx_hal_can.c ****     }
 951:Drivers/STM32F7xx_HAL_Driver/Src/stm32f7xx_hal_can.c ****   }
 952:Drivers/STM32F7xx_HAL_Driver/Src/stm32f7xx_hal_can.c ****   else
 953:Drivers/STM32F7xx_HAL_Driver/Src/stm32f7xx_hal_can.c ****   {
 954:Drivers/STM32F7xx_HAL_Driver/Src/stm32f7xx_hal_can.c ****     /* Update error code */
 955:Drivers/STM32F7xx_HAL_Driver/Src/stm32f7xx_hal_can.c ****     hcan->ErrorCode |= HAL_CAN_ERROR_NOT_INITIALIZED;
 984              		.loc 1 955 0
 985 0016 436A     		ldr	r3, [r0, #36]
ARM GAS  /var/folders/_f/lv_lzyzs40z4gsrf231fdcyh0000gn/T//ccB3MVWE.s 			page 37


 986              	.LVL67:
 987 0018 43F48023 		orr	r3, r3, #262144
 988 001c 4362     		str	r3, [r0, #36]
 956:Drivers/STM32F7xx_HAL_Driver/Src/stm32f7xx_hal_can.c **** 
 957:Drivers/STM32F7xx_HAL_Driver/Src/stm32f7xx_hal_can.c ****     return HAL_ERROR;
 989              		.loc 1 957 0
 990 001e 0120     		movs	r0, #1
 991              	.LVL68:
 992 0020 4DE0     		b	.L109
 993              	.LVL69:
 994              	.L102:
 894:Drivers/STM32F7xx_HAL_Driver/Src/stm32f7xx_hal_can.c ****         ((hcan->Instance->TSR & CAN_TSR_TME1) != RESET) ||
 995              		.loc 1 894 0
 996 0022 0468     		ldr	r4, [r0]
 997 0024 A568     		ldr	r5, [r4, #8]
 998 0026 15F0806F 		tst	r5, #67108864
 999 002a 07D1     		bne	.L104
 895:Drivers/STM32F7xx_HAL_Driver/Src/stm32f7xx_hal_can.c ****         ((hcan->Instance->TSR & CAN_TSR_TME2) != RESET))
 1000              		.loc 1 895 0 discriminator 1
 1001 002c A568     		ldr	r5, [r4, #8]
 894:Drivers/STM32F7xx_HAL_Driver/Src/stm32f7xx_hal_can.c ****         ((hcan->Instance->TSR & CAN_TSR_TME1) != RESET) ||
 1002              		.loc 1 894 0 discriminator 1
 1003 002e 15F0006F 		tst	r5, #134217728
 1004 0032 03D1     		bne	.L104
 896:Drivers/STM32F7xx_HAL_Driver/Src/stm32f7xx_hal_can.c ****     {
 1005              		.loc 1 896 0
 1006 0034 A568     		ldr	r5, [r4, #8]
 895:Drivers/STM32F7xx_HAL_Driver/Src/stm32f7xx_hal_can.c ****         ((hcan->Instance->TSR & CAN_TSR_TME2) != RESET))
 1007              		.loc 1 895 0
 1008 0036 15F0805F 		tst	r5, #268435456
 1009 003a 55D0     		beq	.L105
 1010              	.L104:
 899:Drivers/STM32F7xx_HAL_Driver/Src/stm32f7xx_hal_can.c **** 
 1011              		.loc 1 899 0
 1012 003c A468     		ldr	r4, [r4, #8]
 1013 003e C4F30164 		ubfx	r4, r4, #24, #2
 1014              	.LVL70:
 902:Drivers/STM32F7xx_HAL_Driver/Src/stm32f7xx_hal_can.c **** 
 1015              		.loc 1 902 0
 1016 0042 0125     		movs	r5, #1
 1017 0044 A540     		lsls	r5, r5, r4
 1018 0046 1D60     		str	r5, [r3]
 905:Drivers/STM32F7xx_HAL_Driver/Src/stm32f7xx_hal_can.c ****       {
 1019              		.loc 1 905 0
 1020 0048 8B68     		ldr	r3, [r1, #8]
 1021              	.LVL71:
 1022 004a 002B     		cmp	r3, #0
 1023 004c 39D1     		bne	.L106
 907:Drivers/STM32F7xx_HAL_Driver/Src/stm32f7xx_hal_can.c ****                                                            pHeader->RTR);
 1024              		.loc 1 907 0
 1025 004e 0E68     		ldr	r6, [r1]
 908:Drivers/STM32F7xx_HAL_Driver/Src/stm32f7xx_hal_can.c ****       }
 1026              		.loc 1 908 0
 1027 0050 CB68     		ldr	r3, [r1, #12]
 907:Drivers/STM32F7xx_HAL_Driver/Src/stm32f7xx_hal_can.c ****                                                            pHeader->RTR);
 1028              		.loc 1 907 0
 1029 0052 0568     		ldr	r5, [r0]
ARM GAS  /var/folders/_f/lv_lzyzs40z4gsrf231fdcyh0000gn/T//ccB3MVWE.s 			page 38


 1030 0054 43EA4656 		orr	r6, r3, r6, lsl #21
 1031 0058 04F11803 		add	r3, r4, #24
 1032 005c 1B01     		lsls	r3, r3, #4
 1033 005e EE50     		str	r6, [r5, r3]
 1034              	.L107:
 918:Drivers/STM32F7xx_HAL_Driver/Src/stm32f7xx_hal_can.c **** 
 1035              		.loc 1 918 0
 1036 0060 0368     		ldr	r3, [r0]
 1037 0062 0D69     		ldr	r5, [r1, #16]
 1038 0064 04F11806 		add	r6, r4, #24
 1039 0068 03EB0613 		add	r3, r3, r6, lsl #4
 1040 006c 5D60     		str	r5, [r3, #4]
 921:Drivers/STM32F7xx_HAL_Driver/Src/stm32f7xx_hal_can.c ****       {
 1041              		.loc 1 921 0
 1042 006e 0B7D     		ldrb	r3, [r1, #20]	@ zero_extendqisi2
 1043 0070 012B     		cmp	r3, #1
 1044 0072 31D0     		beq	.L111
 1045              	.LVL72:
 1046              	.L108:
 927:Drivers/STM32F7xx_HAL_Driver/Src/stm32f7xx_hal_can.c ****                 ((uint32_t)aData[7] << CAN_TDH0R_DATA7_Pos) |
 1047              		.loc 1 927 0
 1048 0074 D179     		ldrb	r1, [r2, #7]	@ zero_extendqisi2
 1049 0076 9379     		ldrb	r3, [r2, #6]	@ zero_extendqisi2
 1050 0078 1B04     		lsls	r3, r3, #16
 1051 007a 43EA0163 		orr	r3, r3, r1, lsl #24
 1052 007e 5179     		ldrb	r1, [r2, #5]	@ zero_extendqisi2
 1053 0080 43EA0123 		orr	r3, r3, r1, lsl #8
 1054 0084 1579     		ldrb	r5, [r2, #4]	@ zero_extendqisi2
 1055 0086 0168     		ldr	r1, [r0]
 1056 0088 2B43     		orrs	r3, r3, r5
 1057 008a 2501     		lsls	r5, r4, #4
 1058 008c 2944     		add	r1, r1, r5
 1059 008e C1F88C31 		str	r3, [r1, #396]
 932:Drivers/STM32F7xx_HAL_Driver/Src/stm32f7xx_hal_can.c ****                 ((uint32_t)aData[3] << CAN_TDL0R_DATA3_Pos) |
 1060              		.loc 1 932 0
 1061 0092 D178     		ldrb	r1, [r2, #3]	@ zero_extendqisi2
 1062 0094 9378     		ldrb	r3, [r2, #2]	@ zero_extendqisi2
 1063 0096 1B04     		lsls	r3, r3, #16
 1064 0098 43EA0163 		orr	r3, r3, r1, lsl #24
 1065 009c 5178     		ldrb	r1, [r2, #1]	@ zero_extendqisi2
 1066 009e 43EA0123 		orr	r3, r3, r1, lsl #8
 1067 00a2 1178     		ldrb	r1, [r2]	@ zero_extendqisi2
 1068 00a4 0268     		ldr	r2, [r0]
 1069              	.LVL73:
 1070 00a6 0B43     		orrs	r3, r3, r1
 1071 00a8 2A44     		add	r2, r2, r5
 1072 00aa C2F88831 		str	r3, [r2, #392]
 939:Drivers/STM32F7xx_HAL_Driver/Src/stm32f7xx_hal_can.c **** 
 1073              		.loc 1 939 0
 1074 00ae 0268     		ldr	r2, [r0]
 1075 00b0 1834     		adds	r4, r4, #24
 1076              	.LVL74:
 1077 00b2 2401     		lsls	r4, r4, #4
 1078 00b4 1359     		ldr	r3, [r2, r4]
 1079 00b6 43F00103 		orr	r3, r3, #1
 1080 00ba 1351     		str	r3, [r2, r4]
 942:Drivers/STM32F7xx_HAL_Driver/Src/stm32f7xx_hal_can.c ****     }
ARM GAS  /var/folders/_f/lv_lzyzs40z4gsrf231fdcyh0000gn/T//ccB3MVWE.s 			page 39


 1081              		.loc 1 942 0
 1082 00bc 0020     		movs	r0, #0
 1083              	.LVL75:
 1084              	.L109:
 958:Drivers/STM32F7xx_HAL_Driver/Src/stm32f7xx_hal_can.c ****   }
 959:Drivers/STM32F7xx_HAL_Driver/Src/stm32f7xx_hal_can.c **** }
 1085              		.loc 1 959 0
 1086 00be 70BC     		pop	{r4, r5, r6}
 1087              	.LCFI13:
 1088              		.cfi_remember_state
 1089              		.cfi_restore 6
 1090              		.cfi_restore 5
 1091              		.cfi_restore 4
 1092              		.cfi_def_cfa_offset 0
 1093 00c0 7047     		bx	lr
 1094              	.LVL76:
 1095              	.L106:
 1096              	.LCFI14:
 1097              		.cfi_restore_state
 912:Drivers/STM32F7xx_HAL_Driver/Src/stm32f7xx_hal_can.c ****                                                            pHeader->IDE |
 1098              		.loc 1 912 0
 1099 00c2 4D68     		ldr	r5, [r1, #4]
 1100 00c4 43EAC503 		orr	r3, r3, r5, lsl #3
 914:Drivers/STM32F7xx_HAL_Driver/Src/stm32f7xx_hal_can.c ****       }
 1101              		.loc 1 914 0
 1102 00c8 CD68     		ldr	r5, [r1, #12]
 912:Drivers/STM32F7xx_HAL_Driver/Src/stm32f7xx_hal_can.c ****                                                            pHeader->IDE |
 1103              		.loc 1 912 0
 1104 00ca 0668     		ldr	r6, [r0]
 913:Drivers/STM32F7xx_HAL_Driver/Src/stm32f7xx_hal_can.c ****                                                            pHeader->RTR);
 1105              		.loc 1 913 0
 1106 00cc 2B43     		orrs	r3, r3, r5
 912:Drivers/STM32F7xx_HAL_Driver/Src/stm32f7xx_hal_can.c ****                                                            pHeader->IDE |
 1107              		.loc 1 912 0
 1108 00ce 04F11805 		add	r5, r4, #24
 1109 00d2 2D01     		lsls	r5, r5, #4
 1110 00d4 7351     		str	r3, [r6, r5]
 1111 00d6 C3E7     		b	.L107
 1112              	.L111:
 923:Drivers/STM32F7xx_HAL_Driver/Src/stm32f7xx_hal_can.c ****       }
 1113              		.loc 1 923 0
 1114 00d8 0368     		ldr	r3, [r0]
 1115 00da 03EB0613 		add	r3, r3, r6, lsl #4
 1116 00de 5968     		ldr	r1, [r3, #4]
 1117              	.LVL77:
 1118 00e0 41F48071 		orr	r1, r1, #256
 1119 00e4 5960     		str	r1, [r3, #4]
 1120 00e6 C5E7     		b	.L108
 1121              	.LVL78:
 1122              	.L105:
 947:Drivers/STM32F7xx_HAL_Driver/Src/stm32f7xx_hal_can.c **** 
 1123              		.loc 1 947 0
 1124 00e8 436A     		ldr	r3, [r0, #36]
 1125              	.LVL79:
 1126 00ea 43F40013 		orr	r3, r3, #2097152
 1127 00ee 4362     		str	r3, [r0, #36]
 949:Drivers/STM32F7xx_HAL_Driver/Src/stm32f7xx_hal_can.c ****     }
ARM GAS  /var/folders/_f/lv_lzyzs40z4gsrf231fdcyh0000gn/T//ccB3MVWE.s 			page 40


 1128              		.loc 1 949 0
 1129 00f0 0120     		movs	r0, #1
 1130              	.LVL80:
 1131 00f2 E4E7     		b	.L109
 1132              		.cfi_endproc
 1133              	.LFE148:
 1135              		.section	.text.HAL_CAN_AbortTxRequest,"ax",%progbits
 1136              		.align	1
 1137              		.global	HAL_CAN_AbortTxRequest
 1138              		.syntax unified
 1139              		.thumb
 1140              		.thumb_func
 1141              		.fpu fpv5-d16
 1143              	HAL_CAN_AbortTxRequest:
 1144              	.LFB149:
 960:Drivers/STM32F7xx_HAL_Driver/Src/stm32f7xx_hal_can.c **** 
 961:Drivers/STM32F7xx_HAL_Driver/Src/stm32f7xx_hal_can.c **** /**
 962:Drivers/STM32F7xx_HAL_Driver/Src/stm32f7xx_hal_can.c ****   * @brief  Abort transmission requests
 963:Drivers/STM32F7xx_HAL_Driver/Src/stm32f7xx_hal_can.c ****   * @param  hcan pointer to an CAN_HandleTypeDef structure that contains
 964:Drivers/STM32F7xx_HAL_Driver/Src/stm32f7xx_hal_can.c ****   *         the configuration information for the specified CAN.
 965:Drivers/STM32F7xx_HAL_Driver/Src/stm32f7xx_hal_can.c ****   * @param  TxMailboxes List of the Tx Mailboxes to abort.
 966:Drivers/STM32F7xx_HAL_Driver/Src/stm32f7xx_hal_can.c ****   *         This parameter can be any combination of @arg CAN_Tx_Mailboxes.
 967:Drivers/STM32F7xx_HAL_Driver/Src/stm32f7xx_hal_can.c ****   * @retval HAL status
 968:Drivers/STM32F7xx_HAL_Driver/Src/stm32f7xx_hal_can.c ****   */
 969:Drivers/STM32F7xx_HAL_Driver/Src/stm32f7xx_hal_can.c **** HAL_StatusTypeDef HAL_CAN_AbortTxRequest(CAN_HandleTypeDef *hcan, uint32_t TxMailboxes)
 970:Drivers/STM32F7xx_HAL_Driver/Src/stm32f7xx_hal_can.c **** {
 1145              		.loc 1 970 0
 1146              		.cfi_startproc
 1147              		@ args = 0, pretend = 0, frame = 0
 1148              		@ frame_needed = 0, uses_anonymous_args = 0
 1149              		@ link register save eliminated.
 1150              	.LVL81:
 971:Drivers/STM32F7xx_HAL_Driver/Src/stm32f7xx_hal_can.c ****   /* Check function parameters */
 972:Drivers/STM32F7xx_HAL_Driver/Src/stm32f7xx_hal_can.c ****   assert_param(IS_CAN_TX_MAILBOX_LIST(TxMailboxes));
 973:Drivers/STM32F7xx_HAL_Driver/Src/stm32f7xx_hal_can.c **** 
 974:Drivers/STM32F7xx_HAL_Driver/Src/stm32f7xx_hal_can.c ****   if ((hcan->State == HAL_CAN_STATE_READY) ||
 1151              		.loc 1 974 0
 1152 0000 90F82030 		ldrb	r3, [r0, #32]	@ zero_extendqisi2
 1153 0004 DBB2     		uxtb	r3, r3
 1154 0006 012B     		cmp	r3, #1
 1155 0008 0AD0     		beq	.L113
 975:Drivers/STM32F7xx_HAL_Driver/Src/stm32f7xx_hal_can.c ****       (hcan->State == HAL_CAN_STATE_LISTENING))
 1156              		.loc 1 975 0 discriminator 1
 1157 000a 90F82030 		ldrb	r3, [r0, #32]	@ zero_extendqisi2
 1158 000e DBB2     		uxtb	r3, r3
 974:Drivers/STM32F7xx_HAL_Driver/Src/stm32f7xx_hal_can.c ****       (hcan->State == HAL_CAN_STATE_LISTENING))
 1159              		.loc 1 974 0 discriminator 1
 1160 0010 022B     		cmp	r3, #2
 1161 0012 05D0     		beq	.L113
 976:Drivers/STM32F7xx_HAL_Driver/Src/stm32f7xx_hal_can.c ****   {
 977:Drivers/STM32F7xx_HAL_Driver/Src/stm32f7xx_hal_can.c ****     /* Check Tx Mailbox 0 */
 978:Drivers/STM32F7xx_HAL_Driver/Src/stm32f7xx_hal_can.c ****     if ((TxMailboxes & CAN_TX_MAILBOX0) != RESET)
 979:Drivers/STM32F7xx_HAL_Driver/Src/stm32f7xx_hal_can.c ****     {
 980:Drivers/STM32F7xx_HAL_Driver/Src/stm32f7xx_hal_can.c ****       /* Add cancellation request for Tx Mailbox 0 */
 981:Drivers/STM32F7xx_HAL_Driver/Src/stm32f7xx_hal_can.c ****       SET_BIT(hcan->Instance->TSR, CAN_TSR_ABRQ0);
 982:Drivers/STM32F7xx_HAL_Driver/Src/stm32f7xx_hal_can.c ****     }
 983:Drivers/STM32F7xx_HAL_Driver/Src/stm32f7xx_hal_can.c **** 
ARM GAS  /var/folders/_f/lv_lzyzs40z4gsrf231fdcyh0000gn/T//ccB3MVWE.s 			page 41


 984:Drivers/STM32F7xx_HAL_Driver/Src/stm32f7xx_hal_can.c ****     /* Check Tx Mailbox 1 */
 985:Drivers/STM32F7xx_HAL_Driver/Src/stm32f7xx_hal_can.c ****     if ((TxMailboxes & CAN_TX_MAILBOX1) != RESET)
 986:Drivers/STM32F7xx_HAL_Driver/Src/stm32f7xx_hal_can.c ****     {
 987:Drivers/STM32F7xx_HAL_Driver/Src/stm32f7xx_hal_can.c ****       /* Add cancellation request for Tx Mailbox 1 */
 988:Drivers/STM32F7xx_HAL_Driver/Src/stm32f7xx_hal_can.c ****       SET_BIT(hcan->Instance->TSR, CAN_TSR_ABRQ1);
 989:Drivers/STM32F7xx_HAL_Driver/Src/stm32f7xx_hal_can.c ****     }
 990:Drivers/STM32F7xx_HAL_Driver/Src/stm32f7xx_hal_can.c **** 
 991:Drivers/STM32F7xx_HAL_Driver/Src/stm32f7xx_hal_can.c ****     /* Check Tx Mailbox 2 */
 992:Drivers/STM32F7xx_HAL_Driver/Src/stm32f7xx_hal_can.c ****     if ((TxMailboxes & CAN_TX_MAILBOX2) != RESET)
 993:Drivers/STM32F7xx_HAL_Driver/Src/stm32f7xx_hal_can.c ****     {
 994:Drivers/STM32F7xx_HAL_Driver/Src/stm32f7xx_hal_can.c ****       /* Add cancellation request for Tx Mailbox 2 */
 995:Drivers/STM32F7xx_HAL_Driver/Src/stm32f7xx_hal_can.c ****       SET_BIT(hcan->Instance->TSR, CAN_TSR_ABRQ2);
 996:Drivers/STM32F7xx_HAL_Driver/Src/stm32f7xx_hal_can.c ****     }
 997:Drivers/STM32F7xx_HAL_Driver/Src/stm32f7xx_hal_can.c **** 
 998:Drivers/STM32F7xx_HAL_Driver/Src/stm32f7xx_hal_can.c ****     /* Return function status */
 999:Drivers/STM32F7xx_HAL_Driver/Src/stm32f7xx_hal_can.c ****     return HAL_OK;
1000:Drivers/STM32F7xx_HAL_Driver/Src/stm32f7xx_hal_can.c ****   }
1001:Drivers/STM32F7xx_HAL_Driver/Src/stm32f7xx_hal_can.c ****   else
1002:Drivers/STM32F7xx_HAL_Driver/Src/stm32f7xx_hal_can.c ****   {
1003:Drivers/STM32F7xx_HAL_Driver/Src/stm32f7xx_hal_can.c ****     /* Update error code */
1004:Drivers/STM32F7xx_HAL_Driver/Src/stm32f7xx_hal_can.c ****     hcan->ErrorCode |= HAL_CAN_ERROR_NOT_INITIALIZED;
 1162              		.loc 1 1004 0
 1163 0014 436A     		ldr	r3, [r0, #36]
 1164 0016 43F48023 		orr	r3, r3, #262144
 1165 001a 4362     		str	r3, [r0, #36]
1005:Drivers/STM32F7xx_HAL_Driver/Src/stm32f7xx_hal_can.c **** 
1006:Drivers/STM32F7xx_HAL_Driver/Src/stm32f7xx_hal_can.c ****     return HAL_ERROR;
 1166              		.loc 1 1006 0
 1167 001c 0120     		movs	r0, #1
 1168              	.LVL82:
 1169 001e 7047     		bx	lr
 1170              	.LVL83:
 1171              	.L113:
 978:Drivers/STM32F7xx_HAL_Driver/Src/stm32f7xx_hal_can.c ****     {
 1172              		.loc 1 978 0
 1173 0020 11F0010F 		tst	r1, #1
 1174 0024 04D0     		beq	.L115
 981:Drivers/STM32F7xx_HAL_Driver/Src/stm32f7xx_hal_can.c ****     }
 1175              		.loc 1 981 0
 1176 0026 0268     		ldr	r2, [r0]
 1177 0028 9368     		ldr	r3, [r2, #8]
 1178 002a 43F08003 		orr	r3, r3, #128
 1179 002e 9360     		str	r3, [r2, #8]
 1180              	.L115:
 985:Drivers/STM32F7xx_HAL_Driver/Src/stm32f7xx_hal_can.c ****     {
 1181              		.loc 1 985 0
 1182 0030 11F0020F 		tst	r1, #2
 1183 0034 04D0     		beq	.L116
 988:Drivers/STM32F7xx_HAL_Driver/Src/stm32f7xx_hal_can.c ****     }
 1184              		.loc 1 988 0
 1185 0036 0268     		ldr	r2, [r0]
 1186 0038 9368     		ldr	r3, [r2, #8]
 1187 003a 43F40043 		orr	r3, r3, #32768
 1188 003e 9360     		str	r3, [r2, #8]
 1189              	.L116:
 992:Drivers/STM32F7xx_HAL_Driver/Src/stm32f7xx_hal_can.c ****     {
 1190              		.loc 1 992 0
ARM GAS  /var/folders/_f/lv_lzyzs40z4gsrf231fdcyh0000gn/T//ccB3MVWE.s 			page 42


 1191 0040 11F0040F 		tst	r1, #4
 1192 0044 06D0     		beq	.L118
 995:Drivers/STM32F7xx_HAL_Driver/Src/stm32f7xx_hal_can.c ****     }
 1193              		.loc 1 995 0
 1194 0046 0268     		ldr	r2, [r0]
 1195 0048 9368     		ldr	r3, [r2, #8]
 1196 004a 43F40003 		orr	r3, r3, #8388608
 1197 004e 9360     		str	r3, [r2, #8]
 999:Drivers/STM32F7xx_HAL_Driver/Src/stm32f7xx_hal_can.c ****   }
 1198              		.loc 1 999 0
 1199 0050 0020     		movs	r0, #0
 1200              	.LVL84:
 1201 0052 7047     		bx	lr
 1202              	.LVL85:
 1203              	.L118:
 1204 0054 0020     		movs	r0, #0
 1205              	.LVL86:
1007:Drivers/STM32F7xx_HAL_Driver/Src/stm32f7xx_hal_can.c ****   }
1008:Drivers/STM32F7xx_HAL_Driver/Src/stm32f7xx_hal_can.c **** }
 1206              		.loc 1 1008 0
 1207 0056 7047     		bx	lr
 1208              		.cfi_endproc
 1209              	.LFE149:
 1211              		.section	.text.HAL_CAN_GetTxMailboxesFreeLevel,"ax",%progbits
 1212              		.align	1
 1213              		.global	HAL_CAN_GetTxMailboxesFreeLevel
 1214              		.syntax unified
 1215              		.thumb
 1216              		.thumb_func
 1217              		.fpu fpv5-d16
 1219              	HAL_CAN_GetTxMailboxesFreeLevel:
 1220              	.LFB150:
1009:Drivers/STM32F7xx_HAL_Driver/Src/stm32f7xx_hal_can.c **** 
1010:Drivers/STM32F7xx_HAL_Driver/Src/stm32f7xx_hal_can.c **** /**
1011:Drivers/STM32F7xx_HAL_Driver/Src/stm32f7xx_hal_can.c ****   * @brief  Return Tx Mailboxes free level: number of free Tx Mailboxes.
1012:Drivers/STM32F7xx_HAL_Driver/Src/stm32f7xx_hal_can.c ****   * @param  hcan pointer to a CAN_HandleTypeDef structure that contains
1013:Drivers/STM32F7xx_HAL_Driver/Src/stm32f7xx_hal_can.c ****   *         the configuration information for the specified CAN.
1014:Drivers/STM32F7xx_HAL_Driver/Src/stm32f7xx_hal_can.c ****   * @retval Number of free Tx Mailboxes.
1015:Drivers/STM32F7xx_HAL_Driver/Src/stm32f7xx_hal_can.c ****   */
1016:Drivers/STM32F7xx_HAL_Driver/Src/stm32f7xx_hal_can.c **** uint32_t HAL_CAN_GetTxMailboxesFreeLevel(CAN_HandleTypeDef *hcan)
1017:Drivers/STM32F7xx_HAL_Driver/Src/stm32f7xx_hal_can.c **** {
 1221              		.loc 1 1017 0
 1222              		.cfi_startproc
 1223              		@ args = 0, pretend = 0, frame = 0
 1224              		@ frame_needed = 0, uses_anonymous_args = 0
 1225              		@ link register save eliminated.
 1226              	.LVL87:
1018:Drivers/STM32F7xx_HAL_Driver/Src/stm32f7xx_hal_can.c ****   uint32_t freelevel = 0U;
1019:Drivers/STM32F7xx_HAL_Driver/Src/stm32f7xx_hal_can.c **** 
1020:Drivers/STM32F7xx_HAL_Driver/Src/stm32f7xx_hal_can.c ****   if ((hcan->State == HAL_CAN_STATE_READY) ||
 1227              		.loc 1 1020 0
 1228 0000 90F82030 		ldrb	r3, [r0, #32]	@ zero_extendqisi2
 1229 0004 DBB2     		uxtb	r3, r3
 1230 0006 012B     		cmp	r3, #1
 1231 0008 06D0     		beq	.L120
1021:Drivers/STM32F7xx_HAL_Driver/Src/stm32f7xx_hal_can.c ****       (hcan->State == HAL_CAN_STATE_LISTENING))
 1232              		.loc 1 1021 0 discriminator 1
ARM GAS  /var/folders/_f/lv_lzyzs40z4gsrf231fdcyh0000gn/T//ccB3MVWE.s 			page 43


 1233 000a 90F82030 		ldrb	r3, [r0, #32]	@ zero_extendqisi2
 1234 000e DBB2     		uxtb	r3, r3
1020:Drivers/STM32F7xx_HAL_Driver/Src/stm32f7xx_hal_can.c ****       (hcan->State == HAL_CAN_STATE_LISTENING))
 1235              		.loc 1 1020 0 discriminator 1
 1236 0010 022B     		cmp	r3, #2
 1237 0012 01D0     		beq	.L120
1018:Drivers/STM32F7xx_HAL_Driver/Src/stm32f7xx_hal_can.c ****   uint32_t freelevel = 0U;
 1238              		.loc 1 1018 0
 1239 0014 0020     		movs	r0, #0
 1240              	.LVL88:
 1241              	.L119:
1022:Drivers/STM32F7xx_HAL_Driver/Src/stm32f7xx_hal_can.c ****   {
1023:Drivers/STM32F7xx_HAL_Driver/Src/stm32f7xx_hal_can.c ****     /* Check Tx Mailbox 0 status */
1024:Drivers/STM32F7xx_HAL_Driver/Src/stm32f7xx_hal_can.c ****     if ((hcan->Instance->TSR & CAN_TSR_TME0) != RESET)
1025:Drivers/STM32F7xx_HAL_Driver/Src/stm32f7xx_hal_can.c ****     {
1026:Drivers/STM32F7xx_HAL_Driver/Src/stm32f7xx_hal_can.c ****       freelevel++;
1027:Drivers/STM32F7xx_HAL_Driver/Src/stm32f7xx_hal_can.c ****     }
1028:Drivers/STM32F7xx_HAL_Driver/Src/stm32f7xx_hal_can.c **** 
1029:Drivers/STM32F7xx_HAL_Driver/Src/stm32f7xx_hal_can.c ****     /* Check Tx Mailbox 1 status */
1030:Drivers/STM32F7xx_HAL_Driver/Src/stm32f7xx_hal_can.c ****     if ((hcan->Instance->TSR & CAN_TSR_TME1) != RESET)
1031:Drivers/STM32F7xx_HAL_Driver/Src/stm32f7xx_hal_can.c ****     {
1032:Drivers/STM32F7xx_HAL_Driver/Src/stm32f7xx_hal_can.c ****       freelevel++;
1033:Drivers/STM32F7xx_HAL_Driver/Src/stm32f7xx_hal_can.c ****     }
1034:Drivers/STM32F7xx_HAL_Driver/Src/stm32f7xx_hal_can.c **** 
1035:Drivers/STM32F7xx_HAL_Driver/Src/stm32f7xx_hal_can.c ****     /* Check Tx Mailbox 2 status */
1036:Drivers/STM32F7xx_HAL_Driver/Src/stm32f7xx_hal_can.c ****     if ((hcan->Instance->TSR & CAN_TSR_TME2) != RESET)
1037:Drivers/STM32F7xx_HAL_Driver/Src/stm32f7xx_hal_can.c ****     {
1038:Drivers/STM32F7xx_HAL_Driver/Src/stm32f7xx_hal_can.c ****       freelevel++;
1039:Drivers/STM32F7xx_HAL_Driver/Src/stm32f7xx_hal_can.c ****     }
1040:Drivers/STM32F7xx_HAL_Driver/Src/stm32f7xx_hal_can.c ****   }
1041:Drivers/STM32F7xx_HAL_Driver/Src/stm32f7xx_hal_can.c **** 
1042:Drivers/STM32F7xx_HAL_Driver/Src/stm32f7xx_hal_can.c ****   /* Return Tx Mailboxes free level */
1043:Drivers/STM32F7xx_HAL_Driver/Src/stm32f7xx_hal_can.c ****   return freelevel;
1044:Drivers/STM32F7xx_HAL_Driver/Src/stm32f7xx_hal_can.c **** }
 1242              		.loc 1 1044 0
 1243 0016 7047     		bx	lr
 1244              	.LVL89:
 1245              	.L120:
1024:Drivers/STM32F7xx_HAL_Driver/Src/stm32f7xx_hal_can.c ****     {
 1246              		.loc 1 1024 0
 1247 0018 0368     		ldr	r3, [r0]
 1248 001a 9A68     		ldr	r2, [r3, #8]
 1249 001c 12F0806F 		tst	r2, #67108864
 1250 0020 0BD1     		bne	.L125
1018:Drivers/STM32F7xx_HAL_Driver/Src/stm32f7xx_hal_can.c **** 
 1251              		.loc 1 1018 0
 1252 0022 0020     		movs	r0, #0
 1253              	.LVL90:
 1254              	.L122:
1030:Drivers/STM32F7xx_HAL_Driver/Src/stm32f7xx_hal_can.c ****     {
 1255              		.loc 1 1030 0
 1256 0024 9A68     		ldr	r2, [r3, #8]
 1257 0026 12F0006F 		tst	r2, #134217728
 1258 002a 00D0     		beq	.L123
1032:Drivers/STM32F7xx_HAL_Driver/Src/stm32f7xx_hal_can.c ****     }
 1259              		.loc 1 1032 0
 1260 002c 0130     		adds	r0, r0, #1
ARM GAS  /var/folders/_f/lv_lzyzs40z4gsrf231fdcyh0000gn/T//ccB3MVWE.s 			page 44


 1261              	.LVL91:
 1262              	.L123:
1036:Drivers/STM32F7xx_HAL_Driver/Src/stm32f7xx_hal_can.c ****     {
 1263              		.loc 1 1036 0
 1264 002e 9B68     		ldr	r3, [r3, #8]
 1265 0030 13F0805F 		tst	r3, #268435456
 1266 0034 EFD0     		beq	.L119
1038:Drivers/STM32F7xx_HAL_Driver/Src/stm32f7xx_hal_can.c ****     }
 1267              		.loc 1 1038 0
 1268 0036 0130     		adds	r0, r0, #1
 1269              	.LVL92:
 1270 0038 7047     		bx	lr
 1271              	.LVL93:
 1272              	.L125:
1026:Drivers/STM32F7xx_HAL_Driver/Src/stm32f7xx_hal_can.c ****     }
 1273              		.loc 1 1026 0
 1274 003a 0120     		movs	r0, #1
 1275              	.LVL94:
 1276 003c F2E7     		b	.L122
 1277              		.cfi_endproc
 1278              	.LFE150:
 1280              		.section	.text.HAL_CAN_IsTxMessagePending,"ax",%progbits
 1281              		.align	1
 1282              		.global	HAL_CAN_IsTxMessagePending
 1283              		.syntax unified
 1284              		.thumb
 1285              		.thumb_func
 1286              		.fpu fpv5-d16
 1288              	HAL_CAN_IsTxMessagePending:
 1289              	.LFB151:
1045:Drivers/STM32F7xx_HAL_Driver/Src/stm32f7xx_hal_can.c **** 
1046:Drivers/STM32F7xx_HAL_Driver/Src/stm32f7xx_hal_can.c **** /**
1047:Drivers/STM32F7xx_HAL_Driver/Src/stm32f7xx_hal_can.c ****   * @brief  Check if a transmission request is pending on the selected Tx
1048:Drivers/STM32F7xx_HAL_Driver/Src/stm32f7xx_hal_can.c ****   *         Mailboxes.
1049:Drivers/STM32F7xx_HAL_Driver/Src/stm32f7xx_hal_can.c ****   * @param  hcan pointer to an CAN_HandleTypeDef structure that contains
1050:Drivers/STM32F7xx_HAL_Driver/Src/stm32f7xx_hal_can.c ****   *         the configuration information for the specified CAN.
1051:Drivers/STM32F7xx_HAL_Driver/Src/stm32f7xx_hal_can.c ****   * @param  TxMailboxes List of Tx Mailboxes to check.
1052:Drivers/STM32F7xx_HAL_Driver/Src/stm32f7xx_hal_can.c ****   *         This parameter can be any combination of @arg CAN_Tx_Mailboxes.
1053:Drivers/STM32F7xx_HAL_Driver/Src/stm32f7xx_hal_can.c ****   * @retval Status
1054:Drivers/STM32F7xx_HAL_Driver/Src/stm32f7xx_hal_can.c ****   *          - 0 : No pending transmission request on any selected Tx Mailboxes.
1055:Drivers/STM32F7xx_HAL_Driver/Src/stm32f7xx_hal_can.c ****   *          - 1 : Pending transmission request on at least one of the selected
1056:Drivers/STM32F7xx_HAL_Driver/Src/stm32f7xx_hal_can.c ****   *                Tx Mailbox.
1057:Drivers/STM32F7xx_HAL_Driver/Src/stm32f7xx_hal_can.c ****   */
1058:Drivers/STM32F7xx_HAL_Driver/Src/stm32f7xx_hal_can.c **** uint32_t HAL_CAN_IsTxMessagePending(CAN_HandleTypeDef *hcan, uint32_t TxMailboxes)
1059:Drivers/STM32F7xx_HAL_Driver/Src/stm32f7xx_hal_can.c **** {
 1290              		.loc 1 1059 0
 1291              		.cfi_startproc
 1292              		@ args = 0, pretend = 0, frame = 0
 1293              		@ frame_needed = 0, uses_anonymous_args = 0
 1294              		@ link register save eliminated.
 1295              	.LVL95:
1060:Drivers/STM32F7xx_HAL_Driver/Src/stm32f7xx_hal_can.c ****   uint32_t status = 0U;
1061:Drivers/STM32F7xx_HAL_Driver/Src/stm32f7xx_hal_can.c **** 
1062:Drivers/STM32F7xx_HAL_Driver/Src/stm32f7xx_hal_can.c ****   /* Check function parameters */
1063:Drivers/STM32F7xx_HAL_Driver/Src/stm32f7xx_hal_can.c ****   assert_param(IS_CAN_TX_MAILBOX_LIST(TxMailboxes));
1064:Drivers/STM32F7xx_HAL_Driver/Src/stm32f7xx_hal_can.c **** 
1065:Drivers/STM32F7xx_HAL_Driver/Src/stm32f7xx_hal_can.c ****   if ((hcan->State == HAL_CAN_STATE_READY) ||
ARM GAS  /var/folders/_f/lv_lzyzs40z4gsrf231fdcyh0000gn/T//ccB3MVWE.s 			page 45


 1296              		.loc 1 1065 0
 1297 0000 90F82030 		ldrb	r3, [r0, #32]	@ zero_extendqisi2
 1298 0004 DBB2     		uxtb	r3, r3
 1299 0006 012B     		cmp	r3, #1
 1300 0008 06D0     		beq	.L127
1066:Drivers/STM32F7xx_HAL_Driver/Src/stm32f7xx_hal_can.c ****       (hcan->State == HAL_CAN_STATE_LISTENING))
 1301              		.loc 1 1066 0 discriminator 1
 1302 000a 90F82030 		ldrb	r3, [r0, #32]	@ zero_extendqisi2
 1303 000e DBB2     		uxtb	r3, r3
1065:Drivers/STM32F7xx_HAL_Driver/Src/stm32f7xx_hal_can.c ****       (hcan->State == HAL_CAN_STATE_LISTENING))
 1304              		.loc 1 1065 0 discriminator 1
 1305 0010 022B     		cmp	r3, #2
 1306 0012 01D0     		beq	.L127
1060:Drivers/STM32F7xx_HAL_Driver/Src/stm32f7xx_hal_can.c ****   uint32_t status = 0U;
 1307              		.loc 1 1060 0
 1308 0014 0020     		movs	r0, #0
 1309              	.LVL96:
 1310 0016 7047     		bx	lr
 1311              	.LVL97:
 1312              	.L127:
1067:Drivers/STM32F7xx_HAL_Driver/Src/stm32f7xx_hal_can.c ****   {
1068:Drivers/STM32F7xx_HAL_Driver/Src/stm32f7xx_hal_can.c ****     /* Check pending transmission request on the selected Tx Mailboxes */
1069:Drivers/STM32F7xx_HAL_Driver/Src/stm32f7xx_hal_can.c ****     if ((hcan->Instance->TSR & (TxMailboxes << CAN_TSR_TME0_Pos)) != (TxMailboxes << CAN_TSR_TME0_P
 1313              		.loc 1 1069 0
 1314 0018 0368     		ldr	r3, [r0]
 1315 001a 9B68     		ldr	r3, [r3, #8]
 1316 001c 8906     		lsls	r1, r1, #26
 1317              	.LVL98:
 1318 001e 31EA0303 		bics	r3, r1, r3
 1319 0022 01D0     		beq	.L131
1070:Drivers/STM32F7xx_HAL_Driver/Src/stm32f7xx_hal_can.c ****     {
1071:Drivers/STM32F7xx_HAL_Driver/Src/stm32f7xx_hal_can.c ****       status = 1U;
 1320              		.loc 1 1071 0
 1321 0024 0120     		movs	r0, #1
 1322              	.LVL99:
1072:Drivers/STM32F7xx_HAL_Driver/Src/stm32f7xx_hal_can.c ****     }
1073:Drivers/STM32F7xx_HAL_Driver/Src/stm32f7xx_hal_can.c ****   }
1074:Drivers/STM32F7xx_HAL_Driver/Src/stm32f7xx_hal_can.c **** 
1075:Drivers/STM32F7xx_HAL_Driver/Src/stm32f7xx_hal_can.c ****   /* Return status */
1076:Drivers/STM32F7xx_HAL_Driver/Src/stm32f7xx_hal_can.c ****   return status;
1077:Drivers/STM32F7xx_HAL_Driver/Src/stm32f7xx_hal_can.c **** }
 1323              		.loc 1 1077 0
 1324 0026 7047     		bx	lr
 1325              	.LVL100:
 1326              	.L131:
1060:Drivers/STM32F7xx_HAL_Driver/Src/stm32f7xx_hal_can.c **** 
 1327              		.loc 1 1060 0
 1328 0028 0020     		movs	r0, #0
 1329              	.LVL101:
 1330 002a 7047     		bx	lr
 1331              		.cfi_endproc
 1332              	.LFE151:
 1334              		.section	.text.HAL_CAN_GetTxTimestamp,"ax",%progbits
 1335              		.align	1
 1336              		.global	HAL_CAN_GetTxTimestamp
 1337              		.syntax unified
 1338              		.thumb
ARM GAS  /var/folders/_f/lv_lzyzs40z4gsrf231fdcyh0000gn/T//ccB3MVWE.s 			page 46


 1339              		.thumb_func
 1340              		.fpu fpv5-d16
 1342              	HAL_CAN_GetTxTimestamp:
 1343              	.LFB152:
1078:Drivers/STM32F7xx_HAL_Driver/Src/stm32f7xx_hal_can.c **** 
1079:Drivers/STM32F7xx_HAL_Driver/Src/stm32f7xx_hal_can.c **** /**
1080:Drivers/STM32F7xx_HAL_Driver/Src/stm32f7xx_hal_can.c ****   * @brief  Return timestamp of Tx message sent, if time triggered communication
1081:Drivers/STM32F7xx_HAL_Driver/Src/stm32f7xx_hal_can.c ****             mode is enabled.
1082:Drivers/STM32F7xx_HAL_Driver/Src/stm32f7xx_hal_can.c ****   * @param  hcan pointer to a CAN_HandleTypeDef structure that contains
1083:Drivers/STM32F7xx_HAL_Driver/Src/stm32f7xx_hal_can.c ****   *         the configuration information for the specified CAN.
1084:Drivers/STM32F7xx_HAL_Driver/Src/stm32f7xx_hal_can.c ****   * @param  TxMailbox Tx Mailbox where the timestamp of message sent will be
1085:Drivers/STM32F7xx_HAL_Driver/Src/stm32f7xx_hal_can.c ****   *         read.
1086:Drivers/STM32F7xx_HAL_Driver/Src/stm32f7xx_hal_can.c ****   *         This parameter can be one value of @arg CAN_Tx_Mailboxes.
1087:Drivers/STM32F7xx_HAL_Driver/Src/stm32f7xx_hal_can.c ****   * @retval Timestamp of message sent from Tx Mailbox.
1088:Drivers/STM32F7xx_HAL_Driver/Src/stm32f7xx_hal_can.c ****   */
1089:Drivers/STM32F7xx_HAL_Driver/Src/stm32f7xx_hal_can.c **** uint32_t HAL_CAN_GetTxTimestamp(CAN_HandleTypeDef *hcan, uint32_t TxMailbox)
1090:Drivers/STM32F7xx_HAL_Driver/Src/stm32f7xx_hal_can.c **** {
 1344              		.loc 1 1090 0
 1345              		.cfi_startproc
 1346              		@ args = 0, pretend = 0, frame = 0
 1347              		@ frame_needed = 0, uses_anonymous_args = 0
 1348              		@ link register save eliminated.
 1349              	.LVL102:
1091:Drivers/STM32F7xx_HAL_Driver/Src/stm32f7xx_hal_can.c ****   uint32_t timestamp = 0U;
1092:Drivers/STM32F7xx_HAL_Driver/Src/stm32f7xx_hal_can.c ****   uint32_t transmitmailbox;
1093:Drivers/STM32F7xx_HAL_Driver/Src/stm32f7xx_hal_can.c **** 
1094:Drivers/STM32F7xx_HAL_Driver/Src/stm32f7xx_hal_can.c ****   /* Check function parameters */
1095:Drivers/STM32F7xx_HAL_Driver/Src/stm32f7xx_hal_can.c ****   assert_param(IS_CAN_TX_MAILBOX(TxMailbox));
1096:Drivers/STM32F7xx_HAL_Driver/Src/stm32f7xx_hal_can.c **** 
1097:Drivers/STM32F7xx_HAL_Driver/Src/stm32f7xx_hal_can.c ****   if ((hcan->State == HAL_CAN_STATE_READY) ||
 1350              		.loc 1 1097 0
 1351 0000 90F82030 		ldrb	r3, [r0, #32]	@ zero_extendqisi2
 1352 0004 DBB2     		uxtb	r3, r3
 1353 0006 012B     		cmp	r3, #1
 1354 0008 06D0     		beq	.L133
1098:Drivers/STM32F7xx_HAL_Driver/Src/stm32f7xx_hal_can.c ****       (hcan->State == HAL_CAN_STATE_LISTENING))
 1355              		.loc 1 1098 0 discriminator 1
 1356 000a 90F82030 		ldrb	r3, [r0, #32]	@ zero_extendqisi2
 1357 000e DBB2     		uxtb	r3, r3
1097:Drivers/STM32F7xx_HAL_Driver/Src/stm32f7xx_hal_can.c ****       (hcan->State == HAL_CAN_STATE_LISTENING))
 1358              		.loc 1 1097 0 discriminator 1
 1359 0010 022B     		cmp	r3, #2
 1360 0012 01D0     		beq	.L133
1091:Drivers/STM32F7xx_HAL_Driver/Src/stm32f7xx_hal_can.c ****   uint32_t timestamp = 0U;
 1361              		.loc 1 1091 0
 1362 0014 0020     		movs	r0, #0
 1363              	.LVL103:
1099:Drivers/STM32F7xx_HAL_Driver/Src/stm32f7xx_hal_can.c ****   {
1100:Drivers/STM32F7xx_HAL_Driver/Src/stm32f7xx_hal_can.c ****     /* Select the Tx mailbox */
1101:Drivers/STM32F7xx_HAL_Driver/Src/stm32f7xx_hal_can.c ****     transmitmailbox = POSITION_VAL(TxMailbox);
1102:Drivers/STM32F7xx_HAL_Driver/Src/stm32f7xx_hal_can.c **** 
1103:Drivers/STM32F7xx_HAL_Driver/Src/stm32f7xx_hal_can.c ****     /* Get timestamp */
1104:Drivers/STM32F7xx_HAL_Driver/Src/stm32f7xx_hal_can.c ****     timestamp = (hcan->Instance->sTxMailBox[transmitmailbox].TDTR & CAN_TDT0R_TIME) >> CAN_TDT0R_TI
1105:Drivers/STM32F7xx_HAL_Driver/Src/stm32f7xx_hal_can.c ****   }
1106:Drivers/STM32F7xx_HAL_Driver/Src/stm32f7xx_hal_can.c **** 
1107:Drivers/STM32F7xx_HAL_Driver/Src/stm32f7xx_hal_can.c ****   /* Return the timestamp */
1108:Drivers/STM32F7xx_HAL_Driver/Src/stm32f7xx_hal_can.c ****   return timestamp;
ARM GAS  /var/folders/_f/lv_lzyzs40z4gsrf231fdcyh0000gn/T//ccB3MVWE.s 			page 47


1109:Drivers/STM32F7xx_HAL_Driver/Src/stm32f7xx_hal_can.c **** }
 1364              		.loc 1 1109 0
 1365 0016 7047     		bx	lr
 1366              	.LVL104:
 1367              	.L133:
 1368              	.LBB4:
 1369              	.LBB5:
 1370              		.file 2 "Drivers/CMSIS/Include/cmsis_gcc.h"
   1:Drivers/CMSIS/Include/cmsis_gcc.h **** /**************************************************************************//**
   2:Drivers/CMSIS/Include/cmsis_gcc.h ****  * @file     cmsis_gcc.h
   3:Drivers/CMSIS/Include/cmsis_gcc.h ****  * @brief    CMSIS Cortex-M Core Function/Instruction Header File
   4:Drivers/CMSIS/Include/cmsis_gcc.h ****  * @version  V4.30
   5:Drivers/CMSIS/Include/cmsis_gcc.h ****  * @date     20. October 2015
   6:Drivers/CMSIS/Include/cmsis_gcc.h ****  ******************************************************************************/
   7:Drivers/CMSIS/Include/cmsis_gcc.h **** /* Copyright (c) 2009 - 2015 ARM LIMITED
   8:Drivers/CMSIS/Include/cmsis_gcc.h **** 
   9:Drivers/CMSIS/Include/cmsis_gcc.h ****    All rights reserved.
  10:Drivers/CMSIS/Include/cmsis_gcc.h ****    Redistribution and use in source and binary forms, with or without
  11:Drivers/CMSIS/Include/cmsis_gcc.h ****    modification, are permitted provided that the following conditions are met:
  12:Drivers/CMSIS/Include/cmsis_gcc.h ****    - Redistributions of source code must retain the above copyright
  13:Drivers/CMSIS/Include/cmsis_gcc.h ****      notice, this list of conditions and the following disclaimer.
  14:Drivers/CMSIS/Include/cmsis_gcc.h ****    - Redistributions in binary form must reproduce the above copyright
  15:Drivers/CMSIS/Include/cmsis_gcc.h ****      notice, this list of conditions and the following disclaimer in the
  16:Drivers/CMSIS/Include/cmsis_gcc.h ****      documentation and/or other materials provided with the distribution.
  17:Drivers/CMSIS/Include/cmsis_gcc.h ****    - Neither the name of ARM nor the names of its contributors may be used
  18:Drivers/CMSIS/Include/cmsis_gcc.h ****      to endorse or promote products derived from this software without
  19:Drivers/CMSIS/Include/cmsis_gcc.h ****      specific prior written permission.
  20:Drivers/CMSIS/Include/cmsis_gcc.h ****    *
  21:Drivers/CMSIS/Include/cmsis_gcc.h ****    THIS SOFTWARE IS PROVIDED BY THE COPYRIGHT HOLDERS AND CONTRIBUTORS "AS IS"
  22:Drivers/CMSIS/Include/cmsis_gcc.h ****    AND ANY EXPRESS OR IMPLIED WARRANTIES, INCLUDING, BUT NOT LIMITED TO, THE
  23:Drivers/CMSIS/Include/cmsis_gcc.h ****    IMPLIED WARRANTIES OF MERCHANTABILITY AND FITNESS FOR A PARTICULAR PURPOSE
  24:Drivers/CMSIS/Include/cmsis_gcc.h ****    ARE DISCLAIMED. IN NO EVENT SHALL COPYRIGHT HOLDERS AND CONTRIBUTORS BE
  25:Drivers/CMSIS/Include/cmsis_gcc.h ****    LIABLE FOR ANY DIRECT, INDIRECT, INCIDENTAL, SPECIAL, EXEMPLARY, OR
  26:Drivers/CMSIS/Include/cmsis_gcc.h ****    CONSEQUENTIAL DAMAGES (INCLUDING, BUT NOT LIMITED TO, PROCUREMENT OF
  27:Drivers/CMSIS/Include/cmsis_gcc.h ****    SUBSTITUTE GOODS OR SERVICES; LOSS OF USE, DATA, OR PROFITS; OR BUSINESS
  28:Drivers/CMSIS/Include/cmsis_gcc.h ****    INTERRUPTION) HOWEVER CAUSED AND ON ANY THEORY OF LIABILITY, WHETHER IN
  29:Drivers/CMSIS/Include/cmsis_gcc.h ****    CONTRACT, STRICT LIABILITY, OR TORT (INCLUDING NEGLIGENCE OR OTHERWISE)
  30:Drivers/CMSIS/Include/cmsis_gcc.h ****    ARISING IN ANY WAY OUT OF THE USE OF THIS SOFTWARE, EVEN IF ADVISED OF THE
  31:Drivers/CMSIS/Include/cmsis_gcc.h ****    POSSIBILITY OF SUCH DAMAGE.
  32:Drivers/CMSIS/Include/cmsis_gcc.h ****    ---------------------------------------------------------------------------*/
  33:Drivers/CMSIS/Include/cmsis_gcc.h **** 
  34:Drivers/CMSIS/Include/cmsis_gcc.h **** 
  35:Drivers/CMSIS/Include/cmsis_gcc.h **** #ifndef __CMSIS_GCC_H
  36:Drivers/CMSIS/Include/cmsis_gcc.h **** #define __CMSIS_GCC_H
  37:Drivers/CMSIS/Include/cmsis_gcc.h **** 
  38:Drivers/CMSIS/Include/cmsis_gcc.h **** /* ignore some GCC warnings */
  39:Drivers/CMSIS/Include/cmsis_gcc.h **** #if defined ( __GNUC__ )
  40:Drivers/CMSIS/Include/cmsis_gcc.h **** #pragma GCC diagnostic push
  41:Drivers/CMSIS/Include/cmsis_gcc.h **** #pragma GCC diagnostic ignored "-Wsign-conversion"
  42:Drivers/CMSIS/Include/cmsis_gcc.h **** #pragma GCC diagnostic ignored "-Wconversion"
  43:Drivers/CMSIS/Include/cmsis_gcc.h **** #pragma GCC diagnostic ignored "-Wunused-parameter"
  44:Drivers/CMSIS/Include/cmsis_gcc.h **** #endif
  45:Drivers/CMSIS/Include/cmsis_gcc.h **** 
  46:Drivers/CMSIS/Include/cmsis_gcc.h **** 
  47:Drivers/CMSIS/Include/cmsis_gcc.h **** /* ###########################  Core Function Access  ########################### */
  48:Drivers/CMSIS/Include/cmsis_gcc.h **** /** \ingroup  CMSIS_Core_FunctionInterface
  49:Drivers/CMSIS/Include/cmsis_gcc.h ****     \defgroup CMSIS_Core_RegAccFunctions CMSIS Core Register Access Functions
ARM GAS  /var/folders/_f/lv_lzyzs40z4gsrf231fdcyh0000gn/T//ccB3MVWE.s 			page 48


  50:Drivers/CMSIS/Include/cmsis_gcc.h ****   @{
  51:Drivers/CMSIS/Include/cmsis_gcc.h ****  */
  52:Drivers/CMSIS/Include/cmsis_gcc.h **** 
  53:Drivers/CMSIS/Include/cmsis_gcc.h **** /**
  54:Drivers/CMSIS/Include/cmsis_gcc.h ****   \brief   Enable IRQ Interrupts
  55:Drivers/CMSIS/Include/cmsis_gcc.h ****   \details Enables IRQ interrupts by clearing the I-bit in the CPSR.
  56:Drivers/CMSIS/Include/cmsis_gcc.h ****            Can only be executed in Privileged modes.
  57:Drivers/CMSIS/Include/cmsis_gcc.h ****  */
  58:Drivers/CMSIS/Include/cmsis_gcc.h **** __attribute__( ( always_inline ) ) __STATIC_INLINE void __enable_irq(void)
  59:Drivers/CMSIS/Include/cmsis_gcc.h **** {
  60:Drivers/CMSIS/Include/cmsis_gcc.h ****   __ASM volatile ("cpsie i" : : : "memory");
  61:Drivers/CMSIS/Include/cmsis_gcc.h **** }
  62:Drivers/CMSIS/Include/cmsis_gcc.h **** 
  63:Drivers/CMSIS/Include/cmsis_gcc.h **** 
  64:Drivers/CMSIS/Include/cmsis_gcc.h **** /**
  65:Drivers/CMSIS/Include/cmsis_gcc.h ****   \brief   Disable IRQ Interrupts
  66:Drivers/CMSIS/Include/cmsis_gcc.h ****   \details Disables IRQ interrupts by setting the I-bit in the CPSR.
  67:Drivers/CMSIS/Include/cmsis_gcc.h ****   Can only be executed in Privileged modes.
  68:Drivers/CMSIS/Include/cmsis_gcc.h ****  */
  69:Drivers/CMSIS/Include/cmsis_gcc.h **** __attribute__( ( always_inline ) ) __STATIC_INLINE void __disable_irq(void)
  70:Drivers/CMSIS/Include/cmsis_gcc.h **** {
  71:Drivers/CMSIS/Include/cmsis_gcc.h ****   __ASM volatile ("cpsid i" : : : "memory");
  72:Drivers/CMSIS/Include/cmsis_gcc.h **** }
  73:Drivers/CMSIS/Include/cmsis_gcc.h **** 
  74:Drivers/CMSIS/Include/cmsis_gcc.h **** 
  75:Drivers/CMSIS/Include/cmsis_gcc.h **** /**
  76:Drivers/CMSIS/Include/cmsis_gcc.h ****   \brief   Get Control Register
  77:Drivers/CMSIS/Include/cmsis_gcc.h ****   \details Returns the content of the Control Register.
  78:Drivers/CMSIS/Include/cmsis_gcc.h ****   \return               Control Register value
  79:Drivers/CMSIS/Include/cmsis_gcc.h ****  */
  80:Drivers/CMSIS/Include/cmsis_gcc.h **** __attribute__( ( always_inline ) ) __STATIC_INLINE uint32_t __get_CONTROL(void)
  81:Drivers/CMSIS/Include/cmsis_gcc.h **** {
  82:Drivers/CMSIS/Include/cmsis_gcc.h ****   uint32_t result;
  83:Drivers/CMSIS/Include/cmsis_gcc.h **** 
  84:Drivers/CMSIS/Include/cmsis_gcc.h ****   __ASM volatile ("MRS %0, control" : "=r" (result) );
  85:Drivers/CMSIS/Include/cmsis_gcc.h ****   return(result);
  86:Drivers/CMSIS/Include/cmsis_gcc.h **** }
  87:Drivers/CMSIS/Include/cmsis_gcc.h **** 
  88:Drivers/CMSIS/Include/cmsis_gcc.h **** 
  89:Drivers/CMSIS/Include/cmsis_gcc.h **** /**
  90:Drivers/CMSIS/Include/cmsis_gcc.h ****   \brief   Set Control Register
  91:Drivers/CMSIS/Include/cmsis_gcc.h ****   \details Writes the given value to the Control Register.
  92:Drivers/CMSIS/Include/cmsis_gcc.h ****   \param [in]    control  Control Register value to set
  93:Drivers/CMSIS/Include/cmsis_gcc.h ****  */
  94:Drivers/CMSIS/Include/cmsis_gcc.h **** __attribute__( ( always_inline ) ) __STATIC_INLINE void __set_CONTROL(uint32_t control)
  95:Drivers/CMSIS/Include/cmsis_gcc.h **** {
  96:Drivers/CMSIS/Include/cmsis_gcc.h ****   __ASM volatile ("MSR control, %0" : : "r" (control) : "memory");
  97:Drivers/CMSIS/Include/cmsis_gcc.h **** }
  98:Drivers/CMSIS/Include/cmsis_gcc.h **** 
  99:Drivers/CMSIS/Include/cmsis_gcc.h **** 
 100:Drivers/CMSIS/Include/cmsis_gcc.h **** /**
 101:Drivers/CMSIS/Include/cmsis_gcc.h ****   \brief   Get IPSR Register
 102:Drivers/CMSIS/Include/cmsis_gcc.h ****   \details Returns the content of the IPSR Register.
 103:Drivers/CMSIS/Include/cmsis_gcc.h ****   \return               IPSR Register value
 104:Drivers/CMSIS/Include/cmsis_gcc.h ****  */
 105:Drivers/CMSIS/Include/cmsis_gcc.h **** __attribute__( ( always_inline ) ) __STATIC_INLINE uint32_t __get_IPSR(void)
 106:Drivers/CMSIS/Include/cmsis_gcc.h **** {
ARM GAS  /var/folders/_f/lv_lzyzs40z4gsrf231fdcyh0000gn/T//ccB3MVWE.s 			page 49


 107:Drivers/CMSIS/Include/cmsis_gcc.h ****   uint32_t result;
 108:Drivers/CMSIS/Include/cmsis_gcc.h **** 
 109:Drivers/CMSIS/Include/cmsis_gcc.h ****   __ASM volatile ("MRS %0, ipsr" : "=r" (result) );
 110:Drivers/CMSIS/Include/cmsis_gcc.h ****   return(result);
 111:Drivers/CMSIS/Include/cmsis_gcc.h **** }
 112:Drivers/CMSIS/Include/cmsis_gcc.h **** 
 113:Drivers/CMSIS/Include/cmsis_gcc.h **** 
 114:Drivers/CMSIS/Include/cmsis_gcc.h **** /**
 115:Drivers/CMSIS/Include/cmsis_gcc.h ****   \brief   Get APSR Register
 116:Drivers/CMSIS/Include/cmsis_gcc.h ****   \details Returns the content of the APSR Register.
 117:Drivers/CMSIS/Include/cmsis_gcc.h ****   \return               APSR Register value
 118:Drivers/CMSIS/Include/cmsis_gcc.h ****  */
 119:Drivers/CMSIS/Include/cmsis_gcc.h **** __attribute__( ( always_inline ) ) __STATIC_INLINE uint32_t __get_APSR(void)
 120:Drivers/CMSIS/Include/cmsis_gcc.h **** {
 121:Drivers/CMSIS/Include/cmsis_gcc.h ****   uint32_t result;
 122:Drivers/CMSIS/Include/cmsis_gcc.h **** 
 123:Drivers/CMSIS/Include/cmsis_gcc.h ****   __ASM volatile ("MRS %0, apsr" : "=r" (result) );
 124:Drivers/CMSIS/Include/cmsis_gcc.h ****   return(result);
 125:Drivers/CMSIS/Include/cmsis_gcc.h **** }
 126:Drivers/CMSIS/Include/cmsis_gcc.h **** 
 127:Drivers/CMSIS/Include/cmsis_gcc.h **** 
 128:Drivers/CMSIS/Include/cmsis_gcc.h **** /**
 129:Drivers/CMSIS/Include/cmsis_gcc.h ****   \brief   Get xPSR Register
 130:Drivers/CMSIS/Include/cmsis_gcc.h ****   \details Returns the content of the xPSR Register.
 131:Drivers/CMSIS/Include/cmsis_gcc.h **** 
 132:Drivers/CMSIS/Include/cmsis_gcc.h ****     \return               xPSR Register value
 133:Drivers/CMSIS/Include/cmsis_gcc.h ****  */
 134:Drivers/CMSIS/Include/cmsis_gcc.h **** __attribute__( ( always_inline ) ) __STATIC_INLINE uint32_t __get_xPSR(void)
 135:Drivers/CMSIS/Include/cmsis_gcc.h **** {
 136:Drivers/CMSIS/Include/cmsis_gcc.h ****   uint32_t result;
 137:Drivers/CMSIS/Include/cmsis_gcc.h **** 
 138:Drivers/CMSIS/Include/cmsis_gcc.h ****   __ASM volatile ("MRS %0, xpsr" : "=r" (result) );
 139:Drivers/CMSIS/Include/cmsis_gcc.h ****   return(result);
 140:Drivers/CMSIS/Include/cmsis_gcc.h **** }
 141:Drivers/CMSIS/Include/cmsis_gcc.h **** 
 142:Drivers/CMSIS/Include/cmsis_gcc.h **** 
 143:Drivers/CMSIS/Include/cmsis_gcc.h **** /**
 144:Drivers/CMSIS/Include/cmsis_gcc.h ****   \brief   Get Process Stack Pointer
 145:Drivers/CMSIS/Include/cmsis_gcc.h ****   \details Returns the current value of the Process Stack Pointer (PSP).
 146:Drivers/CMSIS/Include/cmsis_gcc.h ****   \return               PSP Register value
 147:Drivers/CMSIS/Include/cmsis_gcc.h ****  */
 148:Drivers/CMSIS/Include/cmsis_gcc.h **** __attribute__( ( always_inline ) ) __STATIC_INLINE uint32_t __get_PSP(void)
 149:Drivers/CMSIS/Include/cmsis_gcc.h **** {
 150:Drivers/CMSIS/Include/cmsis_gcc.h ****   register uint32_t result;
 151:Drivers/CMSIS/Include/cmsis_gcc.h **** 
 152:Drivers/CMSIS/Include/cmsis_gcc.h ****   __ASM volatile ("MRS %0, psp\n"  : "=r" (result) );
 153:Drivers/CMSIS/Include/cmsis_gcc.h ****   return(result);
 154:Drivers/CMSIS/Include/cmsis_gcc.h **** }
 155:Drivers/CMSIS/Include/cmsis_gcc.h **** 
 156:Drivers/CMSIS/Include/cmsis_gcc.h **** 
 157:Drivers/CMSIS/Include/cmsis_gcc.h **** /**
 158:Drivers/CMSIS/Include/cmsis_gcc.h ****   \brief   Set Process Stack Pointer
 159:Drivers/CMSIS/Include/cmsis_gcc.h ****   \details Assigns the given value to the Process Stack Pointer (PSP).
 160:Drivers/CMSIS/Include/cmsis_gcc.h ****   \param [in]    topOfProcStack  Process Stack Pointer value to set
 161:Drivers/CMSIS/Include/cmsis_gcc.h ****  */
 162:Drivers/CMSIS/Include/cmsis_gcc.h **** __attribute__( ( always_inline ) ) __STATIC_INLINE void __set_PSP(uint32_t topOfProcStack)
 163:Drivers/CMSIS/Include/cmsis_gcc.h **** {
ARM GAS  /var/folders/_f/lv_lzyzs40z4gsrf231fdcyh0000gn/T//ccB3MVWE.s 			page 50


 164:Drivers/CMSIS/Include/cmsis_gcc.h ****   __ASM volatile ("MSR psp, %0\n" : : "r" (topOfProcStack) : "sp");
 165:Drivers/CMSIS/Include/cmsis_gcc.h **** }
 166:Drivers/CMSIS/Include/cmsis_gcc.h **** 
 167:Drivers/CMSIS/Include/cmsis_gcc.h **** 
 168:Drivers/CMSIS/Include/cmsis_gcc.h **** /**
 169:Drivers/CMSIS/Include/cmsis_gcc.h ****   \brief   Get Main Stack Pointer
 170:Drivers/CMSIS/Include/cmsis_gcc.h ****   \details Returns the current value of the Main Stack Pointer (MSP).
 171:Drivers/CMSIS/Include/cmsis_gcc.h ****   \return               MSP Register value
 172:Drivers/CMSIS/Include/cmsis_gcc.h ****  */
 173:Drivers/CMSIS/Include/cmsis_gcc.h **** __attribute__( ( always_inline ) ) __STATIC_INLINE uint32_t __get_MSP(void)
 174:Drivers/CMSIS/Include/cmsis_gcc.h **** {
 175:Drivers/CMSIS/Include/cmsis_gcc.h ****   register uint32_t result;
 176:Drivers/CMSIS/Include/cmsis_gcc.h **** 
 177:Drivers/CMSIS/Include/cmsis_gcc.h ****   __ASM volatile ("MRS %0, msp\n" : "=r" (result) );
 178:Drivers/CMSIS/Include/cmsis_gcc.h ****   return(result);
 179:Drivers/CMSIS/Include/cmsis_gcc.h **** }
 180:Drivers/CMSIS/Include/cmsis_gcc.h **** 
 181:Drivers/CMSIS/Include/cmsis_gcc.h **** 
 182:Drivers/CMSIS/Include/cmsis_gcc.h **** /**
 183:Drivers/CMSIS/Include/cmsis_gcc.h ****   \brief   Set Main Stack Pointer
 184:Drivers/CMSIS/Include/cmsis_gcc.h ****   \details Assigns the given value to the Main Stack Pointer (MSP).
 185:Drivers/CMSIS/Include/cmsis_gcc.h **** 
 186:Drivers/CMSIS/Include/cmsis_gcc.h ****     \param [in]    topOfMainStack  Main Stack Pointer value to set
 187:Drivers/CMSIS/Include/cmsis_gcc.h ****  */
 188:Drivers/CMSIS/Include/cmsis_gcc.h **** __attribute__( ( always_inline ) ) __STATIC_INLINE void __set_MSP(uint32_t topOfMainStack)
 189:Drivers/CMSIS/Include/cmsis_gcc.h **** {
 190:Drivers/CMSIS/Include/cmsis_gcc.h ****   __ASM volatile ("MSR msp, %0\n" : : "r" (topOfMainStack) : "sp");
 191:Drivers/CMSIS/Include/cmsis_gcc.h **** }
 192:Drivers/CMSIS/Include/cmsis_gcc.h **** 
 193:Drivers/CMSIS/Include/cmsis_gcc.h **** 
 194:Drivers/CMSIS/Include/cmsis_gcc.h **** /**
 195:Drivers/CMSIS/Include/cmsis_gcc.h ****   \brief   Get Priority Mask
 196:Drivers/CMSIS/Include/cmsis_gcc.h ****   \details Returns the current state of the priority mask bit from the Priority Mask Register.
 197:Drivers/CMSIS/Include/cmsis_gcc.h ****   \return               Priority Mask value
 198:Drivers/CMSIS/Include/cmsis_gcc.h ****  */
 199:Drivers/CMSIS/Include/cmsis_gcc.h **** __attribute__( ( always_inline ) ) __STATIC_INLINE uint32_t __get_PRIMASK(void)
 200:Drivers/CMSIS/Include/cmsis_gcc.h **** {
 201:Drivers/CMSIS/Include/cmsis_gcc.h ****   uint32_t result;
 202:Drivers/CMSIS/Include/cmsis_gcc.h **** 
 203:Drivers/CMSIS/Include/cmsis_gcc.h ****   __ASM volatile ("MRS %0, primask" : "=r" (result) );
 204:Drivers/CMSIS/Include/cmsis_gcc.h ****   return(result);
 205:Drivers/CMSIS/Include/cmsis_gcc.h **** }
 206:Drivers/CMSIS/Include/cmsis_gcc.h **** 
 207:Drivers/CMSIS/Include/cmsis_gcc.h **** 
 208:Drivers/CMSIS/Include/cmsis_gcc.h **** /**
 209:Drivers/CMSIS/Include/cmsis_gcc.h ****   \brief   Set Priority Mask
 210:Drivers/CMSIS/Include/cmsis_gcc.h ****   \details Assigns the given value to the Priority Mask Register.
 211:Drivers/CMSIS/Include/cmsis_gcc.h ****   \param [in]    priMask  Priority Mask
 212:Drivers/CMSIS/Include/cmsis_gcc.h ****  */
 213:Drivers/CMSIS/Include/cmsis_gcc.h **** __attribute__( ( always_inline ) ) __STATIC_INLINE void __set_PRIMASK(uint32_t priMask)
 214:Drivers/CMSIS/Include/cmsis_gcc.h **** {
 215:Drivers/CMSIS/Include/cmsis_gcc.h ****   __ASM volatile ("MSR primask, %0" : : "r" (priMask) : "memory");
 216:Drivers/CMSIS/Include/cmsis_gcc.h **** }
 217:Drivers/CMSIS/Include/cmsis_gcc.h **** 
 218:Drivers/CMSIS/Include/cmsis_gcc.h **** 
 219:Drivers/CMSIS/Include/cmsis_gcc.h **** #if       (__CORTEX_M >= 0x03U)
 220:Drivers/CMSIS/Include/cmsis_gcc.h **** 
ARM GAS  /var/folders/_f/lv_lzyzs40z4gsrf231fdcyh0000gn/T//ccB3MVWE.s 			page 51


 221:Drivers/CMSIS/Include/cmsis_gcc.h **** /**
 222:Drivers/CMSIS/Include/cmsis_gcc.h ****   \brief   Enable FIQ
 223:Drivers/CMSIS/Include/cmsis_gcc.h ****   \details Enables FIQ interrupts by clearing the F-bit in the CPSR.
 224:Drivers/CMSIS/Include/cmsis_gcc.h ****            Can only be executed in Privileged modes.
 225:Drivers/CMSIS/Include/cmsis_gcc.h ****  */
 226:Drivers/CMSIS/Include/cmsis_gcc.h **** __attribute__( ( always_inline ) ) __STATIC_INLINE void __enable_fault_irq(void)
 227:Drivers/CMSIS/Include/cmsis_gcc.h **** {
 228:Drivers/CMSIS/Include/cmsis_gcc.h ****   __ASM volatile ("cpsie f" : : : "memory");
 229:Drivers/CMSIS/Include/cmsis_gcc.h **** }
 230:Drivers/CMSIS/Include/cmsis_gcc.h **** 
 231:Drivers/CMSIS/Include/cmsis_gcc.h **** 
 232:Drivers/CMSIS/Include/cmsis_gcc.h **** /**
 233:Drivers/CMSIS/Include/cmsis_gcc.h ****   \brief   Disable FIQ
 234:Drivers/CMSIS/Include/cmsis_gcc.h ****   \details Disables FIQ interrupts by setting the F-bit in the CPSR.
 235:Drivers/CMSIS/Include/cmsis_gcc.h ****            Can only be executed in Privileged modes.
 236:Drivers/CMSIS/Include/cmsis_gcc.h ****  */
 237:Drivers/CMSIS/Include/cmsis_gcc.h **** __attribute__( ( always_inline ) ) __STATIC_INLINE void __disable_fault_irq(void)
 238:Drivers/CMSIS/Include/cmsis_gcc.h **** {
 239:Drivers/CMSIS/Include/cmsis_gcc.h ****   __ASM volatile ("cpsid f" : : : "memory");
 240:Drivers/CMSIS/Include/cmsis_gcc.h **** }
 241:Drivers/CMSIS/Include/cmsis_gcc.h **** 
 242:Drivers/CMSIS/Include/cmsis_gcc.h **** 
 243:Drivers/CMSIS/Include/cmsis_gcc.h **** /**
 244:Drivers/CMSIS/Include/cmsis_gcc.h ****   \brief   Get Base Priority
 245:Drivers/CMSIS/Include/cmsis_gcc.h ****   \details Returns the current value of the Base Priority register.
 246:Drivers/CMSIS/Include/cmsis_gcc.h ****   \return               Base Priority register value
 247:Drivers/CMSIS/Include/cmsis_gcc.h ****  */
 248:Drivers/CMSIS/Include/cmsis_gcc.h **** __attribute__( ( always_inline ) ) __STATIC_INLINE uint32_t __get_BASEPRI(void)
 249:Drivers/CMSIS/Include/cmsis_gcc.h **** {
 250:Drivers/CMSIS/Include/cmsis_gcc.h ****   uint32_t result;
 251:Drivers/CMSIS/Include/cmsis_gcc.h **** 
 252:Drivers/CMSIS/Include/cmsis_gcc.h ****   __ASM volatile ("MRS %0, basepri" : "=r" (result) );
 253:Drivers/CMSIS/Include/cmsis_gcc.h ****   return(result);
 254:Drivers/CMSIS/Include/cmsis_gcc.h **** }
 255:Drivers/CMSIS/Include/cmsis_gcc.h **** 
 256:Drivers/CMSIS/Include/cmsis_gcc.h **** 
 257:Drivers/CMSIS/Include/cmsis_gcc.h **** /**
 258:Drivers/CMSIS/Include/cmsis_gcc.h ****   \brief   Set Base Priority
 259:Drivers/CMSIS/Include/cmsis_gcc.h ****   \details Assigns the given value to the Base Priority register.
 260:Drivers/CMSIS/Include/cmsis_gcc.h ****   \param [in]    basePri  Base Priority value to set
 261:Drivers/CMSIS/Include/cmsis_gcc.h ****  */
 262:Drivers/CMSIS/Include/cmsis_gcc.h **** __attribute__( ( always_inline ) ) __STATIC_INLINE void __set_BASEPRI(uint32_t value)
 263:Drivers/CMSIS/Include/cmsis_gcc.h **** {
 264:Drivers/CMSIS/Include/cmsis_gcc.h ****   __ASM volatile ("MSR basepri, %0" : : "r" (value) : "memory");
 265:Drivers/CMSIS/Include/cmsis_gcc.h **** }
 266:Drivers/CMSIS/Include/cmsis_gcc.h **** 
 267:Drivers/CMSIS/Include/cmsis_gcc.h **** 
 268:Drivers/CMSIS/Include/cmsis_gcc.h **** /**
 269:Drivers/CMSIS/Include/cmsis_gcc.h ****   \brief   Set Base Priority with condition
 270:Drivers/CMSIS/Include/cmsis_gcc.h ****   \details Assigns the given value to the Base Priority register only if BASEPRI masking is disable
 271:Drivers/CMSIS/Include/cmsis_gcc.h ****            or the new value increases the BASEPRI priority level.
 272:Drivers/CMSIS/Include/cmsis_gcc.h ****   \param [in]    basePri  Base Priority value to set
 273:Drivers/CMSIS/Include/cmsis_gcc.h ****  */
 274:Drivers/CMSIS/Include/cmsis_gcc.h **** __attribute__( ( always_inline ) ) __STATIC_INLINE void __set_BASEPRI_MAX(uint32_t value)
 275:Drivers/CMSIS/Include/cmsis_gcc.h **** {
 276:Drivers/CMSIS/Include/cmsis_gcc.h ****   __ASM volatile ("MSR basepri_max, %0" : : "r" (value) : "memory");
 277:Drivers/CMSIS/Include/cmsis_gcc.h **** }
ARM GAS  /var/folders/_f/lv_lzyzs40z4gsrf231fdcyh0000gn/T//ccB3MVWE.s 			page 52


 278:Drivers/CMSIS/Include/cmsis_gcc.h **** 
 279:Drivers/CMSIS/Include/cmsis_gcc.h **** 
 280:Drivers/CMSIS/Include/cmsis_gcc.h **** /**
 281:Drivers/CMSIS/Include/cmsis_gcc.h ****   \brief   Get Fault Mask
 282:Drivers/CMSIS/Include/cmsis_gcc.h ****   \details Returns the current value of the Fault Mask register.
 283:Drivers/CMSIS/Include/cmsis_gcc.h ****   \return               Fault Mask register value
 284:Drivers/CMSIS/Include/cmsis_gcc.h ****  */
 285:Drivers/CMSIS/Include/cmsis_gcc.h **** __attribute__( ( always_inline ) ) __STATIC_INLINE uint32_t __get_FAULTMASK(void)
 286:Drivers/CMSIS/Include/cmsis_gcc.h **** {
 287:Drivers/CMSIS/Include/cmsis_gcc.h ****   uint32_t result;
 288:Drivers/CMSIS/Include/cmsis_gcc.h **** 
 289:Drivers/CMSIS/Include/cmsis_gcc.h ****   __ASM volatile ("MRS %0, faultmask" : "=r" (result) );
 290:Drivers/CMSIS/Include/cmsis_gcc.h ****   return(result);
 291:Drivers/CMSIS/Include/cmsis_gcc.h **** }
 292:Drivers/CMSIS/Include/cmsis_gcc.h **** 
 293:Drivers/CMSIS/Include/cmsis_gcc.h **** 
 294:Drivers/CMSIS/Include/cmsis_gcc.h **** /**
 295:Drivers/CMSIS/Include/cmsis_gcc.h ****   \brief   Set Fault Mask
 296:Drivers/CMSIS/Include/cmsis_gcc.h ****   \details Assigns the given value to the Fault Mask register.
 297:Drivers/CMSIS/Include/cmsis_gcc.h ****   \param [in]    faultMask  Fault Mask value to set
 298:Drivers/CMSIS/Include/cmsis_gcc.h ****  */
 299:Drivers/CMSIS/Include/cmsis_gcc.h **** __attribute__( ( always_inline ) ) __STATIC_INLINE void __set_FAULTMASK(uint32_t faultMask)
 300:Drivers/CMSIS/Include/cmsis_gcc.h **** {
 301:Drivers/CMSIS/Include/cmsis_gcc.h ****   __ASM volatile ("MSR faultmask, %0" : : "r" (faultMask) : "memory");
 302:Drivers/CMSIS/Include/cmsis_gcc.h **** }
 303:Drivers/CMSIS/Include/cmsis_gcc.h **** 
 304:Drivers/CMSIS/Include/cmsis_gcc.h **** #endif /* (__CORTEX_M >= 0x03U) */
 305:Drivers/CMSIS/Include/cmsis_gcc.h **** 
 306:Drivers/CMSIS/Include/cmsis_gcc.h **** 
 307:Drivers/CMSIS/Include/cmsis_gcc.h **** #if       (__CORTEX_M == 0x04U) || (__CORTEX_M == 0x07U)
 308:Drivers/CMSIS/Include/cmsis_gcc.h **** 
 309:Drivers/CMSIS/Include/cmsis_gcc.h **** /**
 310:Drivers/CMSIS/Include/cmsis_gcc.h ****   \brief   Get FPSCR
 311:Drivers/CMSIS/Include/cmsis_gcc.h ****   \details Returns the current value of the Floating Point Status/Control register.
 312:Drivers/CMSIS/Include/cmsis_gcc.h ****   \return               Floating Point Status/Control register value
 313:Drivers/CMSIS/Include/cmsis_gcc.h ****  */
 314:Drivers/CMSIS/Include/cmsis_gcc.h **** __attribute__( ( always_inline ) ) __STATIC_INLINE uint32_t __get_FPSCR(void)
 315:Drivers/CMSIS/Include/cmsis_gcc.h **** {
 316:Drivers/CMSIS/Include/cmsis_gcc.h **** #if (__FPU_PRESENT == 1U) && (__FPU_USED == 1U)
 317:Drivers/CMSIS/Include/cmsis_gcc.h ****   uint32_t result;
 318:Drivers/CMSIS/Include/cmsis_gcc.h **** 
 319:Drivers/CMSIS/Include/cmsis_gcc.h ****   /* Empty asm statement works as a scheduling barrier */
 320:Drivers/CMSIS/Include/cmsis_gcc.h ****   __ASM volatile ("");
 321:Drivers/CMSIS/Include/cmsis_gcc.h ****   __ASM volatile ("VMRS %0, fpscr" : "=r" (result) );
 322:Drivers/CMSIS/Include/cmsis_gcc.h ****   __ASM volatile ("");
 323:Drivers/CMSIS/Include/cmsis_gcc.h ****   return(result);
 324:Drivers/CMSIS/Include/cmsis_gcc.h **** #else
 325:Drivers/CMSIS/Include/cmsis_gcc.h ****    return(0);
 326:Drivers/CMSIS/Include/cmsis_gcc.h **** #endif
 327:Drivers/CMSIS/Include/cmsis_gcc.h **** }
 328:Drivers/CMSIS/Include/cmsis_gcc.h **** 
 329:Drivers/CMSIS/Include/cmsis_gcc.h **** 
 330:Drivers/CMSIS/Include/cmsis_gcc.h **** /**
 331:Drivers/CMSIS/Include/cmsis_gcc.h ****   \brief   Set FPSCR
 332:Drivers/CMSIS/Include/cmsis_gcc.h ****   \details Assigns the given value to the Floating Point Status/Control register.
 333:Drivers/CMSIS/Include/cmsis_gcc.h ****   \param [in]    fpscr  Floating Point Status/Control value to set
 334:Drivers/CMSIS/Include/cmsis_gcc.h ****  */
ARM GAS  /var/folders/_f/lv_lzyzs40z4gsrf231fdcyh0000gn/T//ccB3MVWE.s 			page 53


 335:Drivers/CMSIS/Include/cmsis_gcc.h **** __attribute__( ( always_inline ) ) __STATIC_INLINE void __set_FPSCR(uint32_t fpscr)
 336:Drivers/CMSIS/Include/cmsis_gcc.h **** {
 337:Drivers/CMSIS/Include/cmsis_gcc.h **** #if (__FPU_PRESENT == 1U) && (__FPU_USED == 1U)
 338:Drivers/CMSIS/Include/cmsis_gcc.h ****   /* Empty asm statement works as a scheduling barrier */
 339:Drivers/CMSIS/Include/cmsis_gcc.h ****   __ASM volatile ("");
 340:Drivers/CMSIS/Include/cmsis_gcc.h ****   __ASM volatile ("VMSR fpscr, %0" : : "r" (fpscr) : "vfpcc");
 341:Drivers/CMSIS/Include/cmsis_gcc.h ****   __ASM volatile ("");
 342:Drivers/CMSIS/Include/cmsis_gcc.h **** #endif
 343:Drivers/CMSIS/Include/cmsis_gcc.h **** }
 344:Drivers/CMSIS/Include/cmsis_gcc.h **** 
 345:Drivers/CMSIS/Include/cmsis_gcc.h **** #endif /* (__CORTEX_M == 0x04U) || (__CORTEX_M == 0x07U) */
 346:Drivers/CMSIS/Include/cmsis_gcc.h **** 
 347:Drivers/CMSIS/Include/cmsis_gcc.h **** 
 348:Drivers/CMSIS/Include/cmsis_gcc.h **** 
 349:Drivers/CMSIS/Include/cmsis_gcc.h **** /*@} end of CMSIS_Core_RegAccFunctions */
 350:Drivers/CMSIS/Include/cmsis_gcc.h **** 
 351:Drivers/CMSIS/Include/cmsis_gcc.h **** 
 352:Drivers/CMSIS/Include/cmsis_gcc.h **** /* ##########################  Core Instruction Access  ######################### */
 353:Drivers/CMSIS/Include/cmsis_gcc.h **** /** \defgroup CMSIS_Core_InstructionInterface CMSIS Core Instruction Interface
 354:Drivers/CMSIS/Include/cmsis_gcc.h ****   Access to dedicated instructions
 355:Drivers/CMSIS/Include/cmsis_gcc.h ****   @{
 356:Drivers/CMSIS/Include/cmsis_gcc.h **** */
 357:Drivers/CMSIS/Include/cmsis_gcc.h **** 
 358:Drivers/CMSIS/Include/cmsis_gcc.h **** /* Define macros for porting to both thumb1 and thumb2.
 359:Drivers/CMSIS/Include/cmsis_gcc.h ****  * For thumb1, use low register (r0-r7), specified by constraint "l"
 360:Drivers/CMSIS/Include/cmsis_gcc.h ****  * Otherwise, use general registers, specified by constraint "r" */
 361:Drivers/CMSIS/Include/cmsis_gcc.h **** #if defined (__thumb__) && !defined (__thumb2__)
 362:Drivers/CMSIS/Include/cmsis_gcc.h **** #define __CMSIS_GCC_OUT_REG(r) "=l" (r)
 363:Drivers/CMSIS/Include/cmsis_gcc.h **** #define __CMSIS_GCC_USE_REG(r) "l" (r)
 364:Drivers/CMSIS/Include/cmsis_gcc.h **** #else
 365:Drivers/CMSIS/Include/cmsis_gcc.h **** #define __CMSIS_GCC_OUT_REG(r) "=r" (r)
 366:Drivers/CMSIS/Include/cmsis_gcc.h **** #define __CMSIS_GCC_USE_REG(r) "r" (r)
 367:Drivers/CMSIS/Include/cmsis_gcc.h **** #endif
 368:Drivers/CMSIS/Include/cmsis_gcc.h **** 
 369:Drivers/CMSIS/Include/cmsis_gcc.h **** /**
 370:Drivers/CMSIS/Include/cmsis_gcc.h ****   \brief   No Operation
 371:Drivers/CMSIS/Include/cmsis_gcc.h ****   \details No Operation does nothing. This instruction can be used for code alignment purposes.
 372:Drivers/CMSIS/Include/cmsis_gcc.h ****  */
 373:Drivers/CMSIS/Include/cmsis_gcc.h **** __attribute__((always_inline)) __STATIC_INLINE void __NOP(void)
 374:Drivers/CMSIS/Include/cmsis_gcc.h **** {
 375:Drivers/CMSIS/Include/cmsis_gcc.h ****   __ASM volatile ("nop");
 376:Drivers/CMSIS/Include/cmsis_gcc.h **** }
 377:Drivers/CMSIS/Include/cmsis_gcc.h **** 
 378:Drivers/CMSIS/Include/cmsis_gcc.h **** 
 379:Drivers/CMSIS/Include/cmsis_gcc.h **** /**
 380:Drivers/CMSIS/Include/cmsis_gcc.h ****   \brief   Wait For Interrupt
 381:Drivers/CMSIS/Include/cmsis_gcc.h ****   \details Wait For Interrupt is a hint instruction that suspends execution until one of a number o
 382:Drivers/CMSIS/Include/cmsis_gcc.h ****  */
 383:Drivers/CMSIS/Include/cmsis_gcc.h **** __attribute__((always_inline)) __STATIC_INLINE void __WFI(void)
 384:Drivers/CMSIS/Include/cmsis_gcc.h **** {
 385:Drivers/CMSIS/Include/cmsis_gcc.h ****   __ASM volatile ("wfi");
 386:Drivers/CMSIS/Include/cmsis_gcc.h **** }
 387:Drivers/CMSIS/Include/cmsis_gcc.h **** 
 388:Drivers/CMSIS/Include/cmsis_gcc.h **** 
 389:Drivers/CMSIS/Include/cmsis_gcc.h **** /**
 390:Drivers/CMSIS/Include/cmsis_gcc.h ****   \brief   Wait For Event
 391:Drivers/CMSIS/Include/cmsis_gcc.h ****   \details Wait For Event is a hint instruction that permits the processor to enter
ARM GAS  /var/folders/_f/lv_lzyzs40z4gsrf231fdcyh0000gn/T//ccB3MVWE.s 			page 54


 392:Drivers/CMSIS/Include/cmsis_gcc.h ****     a low-power state until one of a number of events occurs.
 393:Drivers/CMSIS/Include/cmsis_gcc.h ****  */
 394:Drivers/CMSIS/Include/cmsis_gcc.h **** __attribute__((always_inline)) __STATIC_INLINE void __WFE(void)
 395:Drivers/CMSIS/Include/cmsis_gcc.h **** {
 396:Drivers/CMSIS/Include/cmsis_gcc.h ****   __ASM volatile ("wfe");
 397:Drivers/CMSIS/Include/cmsis_gcc.h **** }
 398:Drivers/CMSIS/Include/cmsis_gcc.h **** 
 399:Drivers/CMSIS/Include/cmsis_gcc.h **** 
 400:Drivers/CMSIS/Include/cmsis_gcc.h **** /**
 401:Drivers/CMSIS/Include/cmsis_gcc.h ****   \brief   Send Event
 402:Drivers/CMSIS/Include/cmsis_gcc.h ****   \details Send Event is a hint instruction. It causes an event to be signaled to the CPU.
 403:Drivers/CMSIS/Include/cmsis_gcc.h ****  */
 404:Drivers/CMSIS/Include/cmsis_gcc.h **** __attribute__((always_inline)) __STATIC_INLINE void __SEV(void)
 405:Drivers/CMSIS/Include/cmsis_gcc.h **** {
 406:Drivers/CMSIS/Include/cmsis_gcc.h ****   __ASM volatile ("sev");
 407:Drivers/CMSIS/Include/cmsis_gcc.h **** }
 408:Drivers/CMSIS/Include/cmsis_gcc.h **** 
 409:Drivers/CMSIS/Include/cmsis_gcc.h **** 
 410:Drivers/CMSIS/Include/cmsis_gcc.h **** /**
 411:Drivers/CMSIS/Include/cmsis_gcc.h ****   \brief   Instruction Synchronization Barrier
 412:Drivers/CMSIS/Include/cmsis_gcc.h ****   \details Instruction Synchronization Barrier flushes the pipeline in the processor,
 413:Drivers/CMSIS/Include/cmsis_gcc.h ****            so that all instructions following the ISB are fetched from cache or memory,
 414:Drivers/CMSIS/Include/cmsis_gcc.h ****            after the instruction has been completed.
 415:Drivers/CMSIS/Include/cmsis_gcc.h ****  */
 416:Drivers/CMSIS/Include/cmsis_gcc.h **** __attribute__((always_inline)) __STATIC_INLINE void __ISB(void)
 417:Drivers/CMSIS/Include/cmsis_gcc.h **** {
 418:Drivers/CMSIS/Include/cmsis_gcc.h ****   __ASM volatile ("isb 0xF":::"memory");
 419:Drivers/CMSIS/Include/cmsis_gcc.h **** }
 420:Drivers/CMSIS/Include/cmsis_gcc.h **** 
 421:Drivers/CMSIS/Include/cmsis_gcc.h **** 
 422:Drivers/CMSIS/Include/cmsis_gcc.h **** /**
 423:Drivers/CMSIS/Include/cmsis_gcc.h ****   \brief   Data Synchronization Barrier
 424:Drivers/CMSIS/Include/cmsis_gcc.h ****   \details Acts as a special kind of Data Memory Barrier.
 425:Drivers/CMSIS/Include/cmsis_gcc.h ****            It completes when all explicit memory accesses before this instruction complete.
 426:Drivers/CMSIS/Include/cmsis_gcc.h ****  */
 427:Drivers/CMSIS/Include/cmsis_gcc.h **** __attribute__((always_inline)) __STATIC_INLINE void __DSB(void)
 428:Drivers/CMSIS/Include/cmsis_gcc.h **** {
 429:Drivers/CMSIS/Include/cmsis_gcc.h ****   __ASM volatile ("dsb 0xF":::"memory");
 430:Drivers/CMSIS/Include/cmsis_gcc.h **** }
 431:Drivers/CMSIS/Include/cmsis_gcc.h **** 
 432:Drivers/CMSIS/Include/cmsis_gcc.h **** 
 433:Drivers/CMSIS/Include/cmsis_gcc.h **** /**
 434:Drivers/CMSIS/Include/cmsis_gcc.h ****   \brief   Data Memory Barrier
 435:Drivers/CMSIS/Include/cmsis_gcc.h ****   \details Ensures the apparent order of the explicit memory operations before
 436:Drivers/CMSIS/Include/cmsis_gcc.h ****            and after the instruction, without ensuring their completion.
 437:Drivers/CMSIS/Include/cmsis_gcc.h ****  */
 438:Drivers/CMSIS/Include/cmsis_gcc.h **** __attribute__((always_inline)) __STATIC_INLINE void __DMB(void)
 439:Drivers/CMSIS/Include/cmsis_gcc.h **** {
 440:Drivers/CMSIS/Include/cmsis_gcc.h ****   __ASM volatile ("dmb 0xF":::"memory");
 441:Drivers/CMSIS/Include/cmsis_gcc.h **** }
 442:Drivers/CMSIS/Include/cmsis_gcc.h **** 
 443:Drivers/CMSIS/Include/cmsis_gcc.h **** 
 444:Drivers/CMSIS/Include/cmsis_gcc.h **** /**
 445:Drivers/CMSIS/Include/cmsis_gcc.h ****   \brief   Reverse byte order (32 bit)
 446:Drivers/CMSIS/Include/cmsis_gcc.h ****   \details Reverses the byte order in integer value.
 447:Drivers/CMSIS/Include/cmsis_gcc.h ****   \param [in]    value  Value to reverse
 448:Drivers/CMSIS/Include/cmsis_gcc.h ****   \return               Reversed value
ARM GAS  /var/folders/_f/lv_lzyzs40z4gsrf231fdcyh0000gn/T//ccB3MVWE.s 			page 55


 449:Drivers/CMSIS/Include/cmsis_gcc.h ****  */
 450:Drivers/CMSIS/Include/cmsis_gcc.h **** __attribute__((always_inline)) __STATIC_INLINE uint32_t __REV(uint32_t value)
 451:Drivers/CMSIS/Include/cmsis_gcc.h **** {
 452:Drivers/CMSIS/Include/cmsis_gcc.h **** #if (__GNUC__ > 4) || (__GNUC__ == 4 && __GNUC_MINOR__ >= 5)
 453:Drivers/CMSIS/Include/cmsis_gcc.h ****   return __builtin_bswap32(value);
 454:Drivers/CMSIS/Include/cmsis_gcc.h **** #else
 455:Drivers/CMSIS/Include/cmsis_gcc.h ****   uint32_t result;
 456:Drivers/CMSIS/Include/cmsis_gcc.h **** 
 457:Drivers/CMSIS/Include/cmsis_gcc.h ****   __ASM volatile ("rev %0, %1" : __CMSIS_GCC_OUT_REG (result) : __CMSIS_GCC_USE_REG (value) );
 458:Drivers/CMSIS/Include/cmsis_gcc.h ****   return(result);
 459:Drivers/CMSIS/Include/cmsis_gcc.h **** #endif
 460:Drivers/CMSIS/Include/cmsis_gcc.h **** }
 461:Drivers/CMSIS/Include/cmsis_gcc.h **** 
 462:Drivers/CMSIS/Include/cmsis_gcc.h **** 
 463:Drivers/CMSIS/Include/cmsis_gcc.h **** /**
 464:Drivers/CMSIS/Include/cmsis_gcc.h ****   \brief   Reverse byte order (16 bit)
 465:Drivers/CMSIS/Include/cmsis_gcc.h ****   \details Reverses the byte order in two unsigned short values.
 466:Drivers/CMSIS/Include/cmsis_gcc.h ****   \param [in]    value  Value to reverse
 467:Drivers/CMSIS/Include/cmsis_gcc.h ****   \return               Reversed value
 468:Drivers/CMSIS/Include/cmsis_gcc.h ****  */
 469:Drivers/CMSIS/Include/cmsis_gcc.h **** __attribute__((always_inline)) __STATIC_INLINE uint32_t __REV16(uint32_t value)
 470:Drivers/CMSIS/Include/cmsis_gcc.h **** {
 471:Drivers/CMSIS/Include/cmsis_gcc.h ****   uint32_t result;
 472:Drivers/CMSIS/Include/cmsis_gcc.h **** 
 473:Drivers/CMSIS/Include/cmsis_gcc.h ****   __ASM volatile ("rev16 %0, %1" : __CMSIS_GCC_OUT_REG (result) : __CMSIS_GCC_USE_REG (value) );
 474:Drivers/CMSIS/Include/cmsis_gcc.h ****   return(result);
 475:Drivers/CMSIS/Include/cmsis_gcc.h **** }
 476:Drivers/CMSIS/Include/cmsis_gcc.h **** 
 477:Drivers/CMSIS/Include/cmsis_gcc.h **** 
 478:Drivers/CMSIS/Include/cmsis_gcc.h **** /**
 479:Drivers/CMSIS/Include/cmsis_gcc.h ****   \brief   Reverse byte order in signed short value
 480:Drivers/CMSIS/Include/cmsis_gcc.h ****   \details Reverses the byte order in a signed short value with sign extension to integer.
 481:Drivers/CMSIS/Include/cmsis_gcc.h ****   \param [in]    value  Value to reverse
 482:Drivers/CMSIS/Include/cmsis_gcc.h ****   \return               Reversed value
 483:Drivers/CMSIS/Include/cmsis_gcc.h ****  */
 484:Drivers/CMSIS/Include/cmsis_gcc.h **** __attribute__((always_inline)) __STATIC_INLINE int32_t __REVSH(int32_t value)
 485:Drivers/CMSIS/Include/cmsis_gcc.h **** {
 486:Drivers/CMSIS/Include/cmsis_gcc.h **** #if (__GNUC__ > 4) || (__GNUC__ == 4 && __GNUC_MINOR__ >= 8)
 487:Drivers/CMSIS/Include/cmsis_gcc.h ****   return (short)__builtin_bswap16(value);
 488:Drivers/CMSIS/Include/cmsis_gcc.h **** #else
 489:Drivers/CMSIS/Include/cmsis_gcc.h ****   int32_t result;
 490:Drivers/CMSIS/Include/cmsis_gcc.h **** 
 491:Drivers/CMSIS/Include/cmsis_gcc.h ****   __ASM volatile ("revsh %0, %1" : __CMSIS_GCC_OUT_REG (result) : __CMSIS_GCC_USE_REG (value) );
 492:Drivers/CMSIS/Include/cmsis_gcc.h ****   return(result);
 493:Drivers/CMSIS/Include/cmsis_gcc.h **** #endif
 494:Drivers/CMSIS/Include/cmsis_gcc.h **** }
 495:Drivers/CMSIS/Include/cmsis_gcc.h **** 
 496:Drivers/CMSIS/Include/cmsis_gcc.h **** 
 497:Drivers/CMSIS/Include/cmsis_gcc.h **** /**
 498:Drivers/CMSIS/Include/cmsis_gcc.h ****   \brief   Rotate Right in unsigned value (32 bit)
 499:Drivers/CMSIS/Include/cmsis_gcc.h ****   \details Rotate Right (immediate) provides the value of the contents of a register rotated by a v
 500:Drivers/CMSIS/Include/cmsis_gcc.h ****   \param [in]    value  Value to rotate
 501:Drivers/CMSIS/Include/cmsis_gcc.h ****   \param [in]    value  Number of Bits to rotate
 502:Drivers/CMSIS/Include/cmsis_gcc.h ****   \return               Rotated value
 503:Drivers/CMSIS/Include/cmsis_gcc.h ****  */
 504:Drivers/CMSIS/Include/cmsis_gcc.h **** __attribute__((always_inline)) __STATIC_INLINE uint32_t __ROR(uint32_t op1, uint32_t op2)
 505:Drivers/CMSIS/Include/cmsis_gcc.h **** {
ARM GAS  /var/folders/_f/lv_lzyzs40z4gsrf231fdcyh0000gn/T//ccB3MVWE.s 			page 56


 506:Drivers/CMSIS/Include/cmsis_gcc.h ****   return (op1 >> op2) | (op1 << (32U - op2));
 507:Drivers/CMSIS/Include/cmsis_gcc.h **** }
 508:Drivers/CMSIS/Include/cmsis_gcc.h **** 
 509:Drivers/CMSIS/Include/cmsis_gcc.h **** 
 510:Drivers/CMSIS/Include/cmsis_gcc.h **** /**
 511:Drivers/CMSIS/Include/cmsis_gcc.h ****   \brief   Breakpoint
 512:Drivers/CMSIS/Include/cmsis_gcc.h ****   \details Causes the processor to enter Debug state.
 513:Drivers/CMSIS/Include/cmsis_gcc.h ****            Debug tools can use this to investigate system state when the instruction at a particula
 514:Drivers/CMSIS/Include/cmsis_gcc.h ****   \param [in]    value  is ignored by the processor.
 515:Drivers/CMSIS/Include/cmsis_gcc.h ****                  If required, a debugger can use it to store additional information about the break
 516:Drivers/CMSIS/Include/cmsis_gcc.h ****  */
 517:Drivers/CMSIS/Include/cmsis_gcc.h **** #define __BKPT(value)                       __ASM volatile ("bkpt "#value)
 518:Drivers/CMSIS/Include/cmsis_gcc.h **** 
 519:Drivers/CMSIS/Include/cmsis_gcc.h **** 
 520:Drivers/CMSIS/Include/cmsis_gcc.h **** /**
 521:Drivers/CMSIS/Include/cmsis_gcc.h ****   \brief   Reverse bit order of value
 522:Drivers/CMSIS/Include/cmsis_gcc.h ****   \details Reverses the bit order of the given value.
 523:Drivers/CMSIS/Include/cmsis_gcc.h ****   \param [in]    value  Value to reverse
 524:Drivers/CMSIS/Include/cmsis_gcc.h ****   \return               Reversed value
 525:Drivers/CMSIS/Include/cmsis_gcc.h ****  */
 526:Drivers/CMSIS/Include/cmsis_gcc.h **** __attribute__((always_inline)) __STATIC_INLINE uint32_t __RBIT(uint32_t value)
 527:Drivers/CMSIS/Include/cmsis_gcc.h **** {
 528:Drivers/CMSIS/Include/cmsis_gcc.h ****   uint32_t result;
 529:Drivers/CMSIS/Include/cmsis_gcc.h **** 
 530:Drivers/CMSIS/Include/cmsis_gcc.h **** #if       (__CORTEX_M >= 0x03U) || (__CORTEX_SC >= 300U)
 531:Drivers/CMSIS/Include/cmsis_gcc.h ****    __ASM volatile ("rbit %0, %1" : "=r" (result) : "r" (value) );
 1371              		.loc 2 531 0
 1372              		.syntax unified
 1373              	@ 531 "Drivers/CMSIS/Include/cmsis_gcc.h" 1
 1374 0018 91FAA1F1 		rbit r1, r1
 1375              	@ 0 "" 2
 1376              	.LVL105:
 1377              		.thumb
 1378              		.syntax unified
 1379              	.LBE5:
 1380              	.LBE4:
1101:Drivers/STM32F7xx_HAL_Driver/Src/stm32f7xx_hal_can.c **** 
 1381              		.loc 1 1101 0
 1382 001c B1FA81F1 		clz	r1, r1
 1383              	.LVL106:
1104:Drivers/STM32F7xx_HAL_Driver/Src/stm32f7xx_hal_can.c ****   }
 1384              		.loc 1 1104 0
 1385 0020 0368     		ldr	r3, [r0]
 1386 0022 1831     		adds	r1, r1, #24
 1387              	.LVL107:
 1388 0024 03EB0111 		add	r1, r3, r1, lsl #4
 1389              	.LVL108:
 1390 0028 4868     		ldr	r0, [r1, #4]
 1391              	.LVL109:
 1392 002a 000C     		lsrs	r0, r0, #16
 1393              	.LVL110:
 1394 002c 7047     		bx	lr
 1395              		.cfi_endproc
 1396              	.LFE152:
 1398              		.section	.text.HAL_CAN_GetRxMessage,"ax",%progbits
 1399              		.align	1
 1400              		.global	HAL_CAN_GetRxMessage
ARM GAS  /var/folders/_f/lv_lzyzs40z4gsrf231fdcyh0000gn/T//ccB3MVWE.s 			page 57


 1401              		.syntax unified
 1402              		.thumb
 1403              		.thumb_func
 1404              		.fpu fpv5-d16
 1406              	HAL_CAN_GetRxMessage:
 1407              	.LFB153:
1110:Drivers/STM32F7xx_HAL_Driver/Src/stm32f7xx_hal_can.c **** 
1111:Drivers/STM32F7xx_HAL_Driver/Src/stm32f7xx_hal_can.c **** /**
1112:Drivers/STM32F7xx_HAL_Driver/Src/stm32f7xx_hal_can.c ****   * @brief  Get an CAN frame from the Rx FIFO zone into the message RAM.
1113:Drivers/STM32F7xx_HAL_Driver/Src/stm32f7xx_hal_can.c ****   * @param  hcan pointer to an CAN_HandleTypeDef structure that contains
1114:Drivers/STM32F7xx_HAL_Driver/Src/stm32f7xx_hal_can.c ****   *         the configuration information for the specified CAN.
1115:Drivers/STM32F7xx_HAL_Driver/Src/stm32f7xx_hal_can.c ****   * @param  RxFifo Fifo number of the received message to be read.
1116:Drivers/STM32F7xx_HAL_Driver/Src/stm32f7xx_hal_can.c ****   *         This parameter can be a value of @arg CAN_receive_FIFO_number.
1117:Drivers/STM32F7xx_HAL_Driver/Src/stm32f7xx_hal_can.c ****   * @param  pHeader pointer to a CAN_RxHeaderTypeDef structure where the header
1118:Drivers/STM32F7xx_HAL_Driver/Src/stm32f7xx_hal_can.c ****   *         of the Rx frame will be stored.
1119:Drivers/STM32F7xx_HAL_Driver/Src/stm32f7xx_hal_can.c ****   * @param  aData array where the payload of the Rx frame will be stored.
1120:Drivers/STM32F7xx_HAL_Driver/Src/stm32f7xx_hal_can.c ****   * @retval HAL status
1121:Drivers/STM32F7xx_HAL_Driver/Src/stm32f7xx_hal_can.c ****   */
1122:Drivers/STM32F7xx_HAL_Driver/Src/stm32f7xx_hal_can.c **** HAL_StatusTypeDef HAL_CAN_GetRxMessage(CAN_HandleTypeDef *hcan, uint32_t RxFifo, CAN_RxHeaderTypeDe
1123:Drivers/STM32F7xx_HAL_Driver/Src/stm32f7xx_hal_can.c **** {
 1408              		.loc 1 1123 0
 1409              		.cfi_startproc
 1410              		@ args = 0, pretend = 0, frame = 0
 1411              		@ frame_needed = 0, uses_anonymous_args = 0
 1412              		@ link register save eliminated.
 1413              	.LVL111:
 1414 0000 30B4     		push	{r4, r5}
 1415              	.LCFI15:
 1416              		.cfi_def_cfa_offset 8
 1417              		.cfi_offset 4, -8
 1418              		.cfi_offset 5, -4
1124:Drivers/STM32F7xx_HAL_Driver/Src/stm32f7xx_hal_can.c ****   assert_param(IS_CAN_RX_FIFO(RxFifo));
1125:Drivers/STM32F7xx_HAL_Driver/Src/stm32f7xx_hal_can.c **** 
1126:Drivers/STM32F7xx_HAL_Driver/Src/stm32f7xx_hal_can.c ****   if ((hcan->State == HAL_CAN_STATE_READY) ||
 1419              		.loc 1 1126 0
 1420 0002 90F82040 		ldrb	r4, [r0, #32]	@ zero_extendqisi2
 1421 0006 E4B2     		uxtb	r4, r4
 1422 0008 012C     		cmp	r4, #1
 1423 000a 0BD0     		beq	.L137
1127:Drivers/STM32F7xx_HAL_Driver/Src/stm32f7xx_hal_can.c ****       (hcan->State == HAL_CAN_STATE_LISTENING))
 1424              		.loc 1 1127 0 discriminator 1
 1425 000c 90F82040 		ldrb	r4, [r0, #32]	@ zero_extendqisi2
 1426 0010 E4B2     		uxtb	r4, r4
1126:Drivers/STM32F7xx_HAL_Driver/Src/stm32f7xx_hal_can.c ****       (hcan->State == HAL_CAN_STATE_LISTENING))
 1427              		.loc 1 1126 0 discriminator 1
 1428 0012 022C     		cmp	r4, #2
 1429 0014 06D0     		beq	.L137
1128:Drivers/STM32F7xx_HAL_Driver/Src/stm32f7xx_hal_can.c ****   {
1129:Drivers/STM32F7xx_HAL_Driver/Src/stm32f7xx_hal_can.c ****     /* Check the Rx FIFO */
1130:Drivers/STM32F7xx_HAL_Driver/Src/stm32f7xx_hal_can.c ****     if (RxFifo == CAN_RX_FIFO0) /* Rx element is assigned to Rx FIFO 0 */
1131:Drivers/STM32F7xx_HAL_Driver/Src/stm32f7xx_hal_can.c ****     {
1132:Drivers/STM32F7xx_HAL_Driver/Src/stm32f7xx_hal_can.c ****       /* Check that the Rx FIFO 0 is not empty */
1133:Drivers/STM32F7xx_HAL_Driver/Src/stm32f7xx_hal_can.c ****       if ((hcan->Instance->RF0R & CAN_RF0R_FMP0) == RESET)
1134:Drivers/STM32F7xx_HAL_Driver/Src/stm32f7xx_hal_can.c ****       {
1135:Drivers/STM32F7xx_HAL_Driver/Src/stm32f7xx_hal_can.c ****         /* Update error code */
1136:Drivers/STM32F7xx_HAL_Driver/Src/stm32f7xx_hal_can.c ****         hcan->ErrorCode |= HAL_CAN_ERROR_PARAM;
1137:Drivers/STM32F7xx_HAL_Driver/Src/stm32f7xx_hal_can.c **** 
ARM GAS  /var/folders/_f/lv_lzyzs40z4gsrf231fdcyh0000gn/T//ccB3MVWE.s 			page 58


1138:Drivers/STM32F7xx_HAL_Driver/Src/stm32f7xx_hal_can.c ****         return HAL_ERROR;
1139:Drivers/STM32F7xx_HAL_Driver/Src/stm32f7xx_hal_can.c ****       }
1140:Drivers/STM32F7xx_HAL_Driver/Src/stm32f7xx_hal_can.c ****     }
1141:Drivers/STM32F7xx_HAL_Driver/Src/stm32f7xx_hal_can.c ****     else if (RxFifo == CAN_RX_FIFO1) /* Rx element is assigned to Rx FIFO 1 */
1142:Drivers/STM32F7xx_HAL_Driver/Src/stm32f7xx_hal_can.c ****     {
1143:Drivers/STM32F7xx_HAL_Driver/Src/stm32f7xx_hal_can.c ****       /* Check that the Rx FIFO 1 is not empty */
1144:Drivers/STM32F7xx_HAL_Driver/Src/stm32f7xx_hal_can.c ****       if ((hcan->Instance->RF1R & CAN_RF1R_FMP1) == RESET)
1145:Drivers/STM32F7xx_HAL_Driver/Src/stm32f7xx_hal_can.c ****       {
1146:Drivers/STM32F7xx_HAL_Driver/Src/stm32f7xx_hal_can.c ****         /* Update error code */
1147:Drivers/STM32F7xx_HAL_Driver/Src/stm32f7xx_hal_can.c ****         hcan->ErrorCode |= HAL_CAN_ERROR_PARAM;
1148:Drivers/STM32F7xx_HAL_Driver/Src/stm32f7xx_hal_can.c **** 
1149:Drivers/STM32F7xx_HAL_Driver/Src/stm32f7xx_hal_can.c ****         return HAL_ERROR;
1150:Drivers/STM32F7xx_HAL_Driver/Src/stm32f7xx_hal_can.c ****       }
1151:Drivers/STM32F7xx_HAL_Driver/Src/stm32f7xx_hal_can.c ****     }
1152:Drivers/STM32F7xx_HAL_Driver/Src/stm32f7xx_hal_can.c **** 
1153:Drivers/STM32F7xx_HAL_Driver/Src/stm32f7xx_hal_can.c ****     /* Get the header */
1154:Drivers/STM32F7xx_HAL_Driver/Src/stm32f7xx_hal_can.c ****     pHeader->IDE = CAN_RI0R_IDE & hcan->Instance->sFIFOMailBox[RxFifo].RIR;
1155:Drivers/STM32F7xx_HAL_Driver/Src/stm32f7xx_hal_can.c ****     if (pHeader->IDE == CAN_ID_STD)
1156:Drivers/STM32F7xx_HAL_Driver/Src/stm32f7xx_hal_can.c ****     {
1157:Drivers/STM32F7xx_HAL_Driver/Src/stm32f7xx_hal_can.c ****       pHeader->StdId = (CAN_RI0R_STID & hcan->Instance->sFIFOMailBox[RxFifo].RIR) >> CAN_TI0R_STID_
1158:Drivers/STM32F7xx_HAL_Driver/Src/stm32f7xx_hal_can.c ****     }
1159:Drivers/STM32F7xx_HAL_Driver/Src/stm32f7xx_hal_can.c ****     else
1160:Drivers/STM32F7xx_HAL_Driver/Src/stm32f7xx_hal_can.c ****     {
1161:Drivers/STM32F7xx_HAL_Driver/Src/stm32f7xx_hal_can.c ****       pHeader->ExtId = ((CAN_RI0R_EXID | CAN_RI0R_STID) & hcan->Instance->sFIFOMailBox[RxFifo].RIR)
1162:Drivers/STM32F7xx_HAL_Driver/Src/stm32f7xx_hal_can.c ****     }
1163:Drivers/STM32F7xx_HAL_Driver/Src/stm32f7xx_hal_can.c ****     pHeader->RTR = (CAN_RI0R_RTR & hcan->Instance->sFIFOMailBox[RxFifo].RIR) >> CAN_RI0R_RTR_Pos;
1164:Drivers/STM32F7xx_HAL_Driver/Src/stm32f7xx_hal_can.c ****     pHeader->DLC = (CAN_RDT0R_DLC & hcan->Instance->sFIFOMailBox[RxFifo].RDTR) >> CAN_RDT0R_DLC_Pos
1165:Drivers/STM32F7xx_HAL_Driver/Src/stm32f7xx_hal_can.c ****     pHeader->FilterMatchIndex = (CAN_RDT0R_FMI & hcan->Instance->sFIFOMailBox[RxFifo].RDTR) >> CAN_
1166:Drivers/STM32F7xx_HAL_Driver/Src/stm32f7xx_hal_can.c ****     pHeader->Timestamp = (CAN_RDT0R_TIME & hcan->Instance->sFIFOMailBox[RxFifo].RDTR) >> CAN_RDT0R_
1167:Drivers/STM32F7xx_HAL_Driver/Src/stm32f7xx_hal_can.c **** 
1168:Drivers/STM32F7xx_HAL_Driver/Src/stm32f7xx_hal_can.c ****     /* Get the data */
1169:Drivers/STM32F7xx_HAL_Driver/Src/stm32f7xx_hal_can.c ****     aData[0] = (CAN_RDL0R_DATA0 & hcan->Instance->sFIFOMailBox[RxFifo].RDLR) >> CAN_RDL0R_DATA0_Pos
1170:Drivers/STM32F7xx_HAL_Driver/Src/stm32f7xx_hal_can.c ****     aData[1] = (CAN_RDL0R_DATA1 & hcan->Instance->sFIFOMailBox[RxFifo].RDLR) >> CAN_RDL0R_DATA1_Pos
1171:Drivers/STM32F7xx_HAL_Driver/Src/stm32f7xx_hal_can.c ****     aData[2] = (CAN_RDL0R_DATA2 & hcan->Instance->sFIFOMailBox[RxFifo].RDLR) >> CAN_RDL0R_DATA2_Pos
1172:Drivers/STM32F7xx_HAL_Driver/Src/stm32f7xx_hal_can.c ****     aData[3] = (CAN_RDL0R_DATA3 & hcan->Instance->sFIFOMailBox[RxFifo].RDLR) >> CAN_RDL0R_DATA3_Pos
1173:Drivers/STM32F7xx_HAL_Driver/Src/stm32f7xx_hal_can.c ****     aData[4] = (CAN_RDH0R_DATA4 & hcan->Instance->sFIFOMailBox[RxFifo].RDHR) >> CAN_RDH0R_DATA4_Pos
1174:Drivers/STM32F7xx_HAL_Driver/Src/stm32f7xx_hal_can.c ****     aData[5] = (CAN_RDH0R_DATA5 & hcan->Instance->sFIFOMailBox[RxFifo].RDHR) >> CAN_RDH0R_DATA5_Pos
1175:Drivers/STM32F7xx_HAL_Driver/Src/stm32f7xx_hal_can.c ****     aData[6] = (CAN_RDH0R_DATA6 & hcan->Instance->sFIFOMailBox[RxFifo].RDHR) >> CAN_RDH0R_DATA6_Pos
1176:Drivers/STM32F7xx_HAL_Driver/Src/stm32f7xx_hal_can.c ****     aData[7] = (CAN_RDH0R_DATA7 & hcan->Instance->sFIFOMailBox[RxFifo].RDHR) >> CAN_RDH0R_DATA7_Pos
1177:Drivers/STM32F7xx_HAL_Driver/Src/stm32f7xx_hal_can.c **** 
1178:Drivers/STM32F7xx_HAL_Driver/Src/stm32f7xx_hal_can.c ****     /* Release the FIFO */
1179:Drivers/STM32F7xx_HAL_Driver/Src/stm32f7xx_hal_can.c ****     if (RxFifo == CAN_RX_FIFO0) /* Rx element is assigned to Rx FIFO 0 */
1180:Drivers/STM32F7xx_HAL_Driver/Src/stm32f7xx_hal_can.c ****     {
1181:Drivers/STM32F7xx_HAL_Driver/Src/stm32f7xx_hal_can.c ****       /* Release RX FIFO 0 */
1182:Drivers/STM32F7xx_HAL_Driver/Src/stm32f7xx_hal_can.c ****       SET_BIT(hcan->Instance->RF0R, CAN_RF0R_RFOM0);
1183:Drivers/STM32F7xx_HAL_Driver/Src/stm32f7xx_hal_can.c ****     }
1184:Drivers/STM32F7xx_HAL_Driver/Src/stm32f7xx_hal_can.c ****     else if (RxFifo == CAN_RX_FIFO1) /* Rx element is assigned to Rx FIFO 1 */
1185:Drivers/STM32F7xx_HAL_Driver/Src/stm32f7xx_hal_can.c ****     {
1186:Drivers/STM32F7xx_HAL_Driver/Src/stm32f7xx_hal_can.c ****       /* Release RX FIFO 1 */
1187:Drivers/STM32F7xx_HAL_Driver/Src/stm32f7xx_hal_can.c ****       SET_BIT(hcan->Instance->RF1R, CAN_RF1R_RFOM1);
1188:Drivers/STM32F7xx_HAL_Driver/Src/stm32f7xx_hal_can.c ****     }
1189:Drivers/STM32F7xx_HAL_Driver/Src/stm32f7xx_hal_can.c **** 
1190:Drivers/STM32F7xx_HAL_Driver/Src/stm32f7xx_hal_can.c ****     /* Return function status */
1191:Drivers/STM32F7xx_HAL_Driver/Src/stm32f7xx_hal_can.c ****     return HAL_OK;
1192:Drivers/STM32F7xx_HAL_Driver/Src/stm32f7xx_hal_can.c ****   }
1193:Drivers/STM32F7xx_HAL_Driver/Src/stm32f7xx_hal_can.c ****   else
1194:Drivers/STM32F7xx_HAL_Driver/Src/stm32f7xx_hal_can.c ****   {
ARM GAS  /var/folders/_f/lv_lzyzs40z4gsrf231fdcyh0000gn/T//ccB3MVWE.s 			page 59


1195:Drivers/STM32F7xx_HAL_Driver/Src/stm32f7xx_hal_can.c ****     /* Update error code */
1196:Drivers/STM32F7xx_HAL_Driver/Src/stm32f7xx_hal_can.c ****     hcan->ErrorCode |= HAL_CAN_ERROR_NOT_INITIALIZED;
 1430              		.loc 1 1196 0
 1431 0016 436A     		ldr	r3, [r0, #36]
 1432              	.LVL112:
 1433 0018 43F48023 		orr	r3, r3, #262144
 1434 001c 4362     		str	r3, [r0, #36]
1197:Drivers/STM32F7xx_HAL_Driver/Src/stm32f7xx_hal_can.c **** 
1198:Drivers/STM32F7xx_HAL_Driver/Src/stm32f7xx_hal_can.c ****     return HAL_ERROR;
 1435              		.loc 1 1198 0
 1436 001e 0120     		movs	r0, #1
 1437              	.LVL113:
 1438              	.L141:
1199:Drivers/STM32F7xx_HAL_Driver/Src/stm32f7xx_hal_can.c ****   }
1200:Drivers/STM32F7xx_HAL_Driver/Src/stm32f7xx_hal_can.c **** }
 1439              		.loc 1 1200 0
 1440 0020 30BC     		pop	{r4, r5}
 1441              	.LCFI16:
 1442              		.cfi_remember_state
 1443              		.cfi_restore 5
 1444              		.cfi_restore 4
 1445              		.cfi_def_cfa_offset 0
 1446 0022 7047     		bx	lr
 1447              	.LVL114:
 1448              	.L137:
 1449              	.LCFI17:
 1450              		.cfi_restore_state
1130:Drivers/STM32F7xx_HAL_Driver/Src/stm32f7xx_hal_can.c ****     {
 1451              		.loc 1 1130 0
 1452 0024 51B9     		cbnz	r1, .L139
1133:Drivers/STM32F7xx_HAL_Driver/Src/stm32f7xx_hal_can.c ****       {
 1453              		.loc 1 1133 0
 1454 0026 0468     		ldr	r4, [r0]
 1455 0028 E468     		ldr	r4, [r4, #12]
 1456 002a 14F0030F 		tst	r4, #3
 1457 002e 07D1     		bne	.L140
1136:Drivers/STM32F7xx_HAL_Driver/Src/stm32f7xx_hal_can.c **** 
 1458              		.loc 1 1136 0
 1459 0030 436A     		ldr	r3, [r0, #36]
 1460              	.LVL115:
 1461 0032 43F40013 		orr	r3, r3, #2097152
 1462 0036 4362     		str	r3, [r0, #36]
1138:Drivers/STM32F7xx_HAL_Driver/Src/stm32f7xx_hal_can.c ****       }
 1463              		.loc 1 1138 0
 1464 0038 0120     		movs	r0, #1
 1465              	.LVL116:
 1466 003a F1E7     		b	.L141
 1467              	.LVL117:
 1468              	.L139:
1141:Drivers/STM32F7xx_HAL_Driver/Src/stm32f7xx_hal_can.c ****     {
 1469              		.loc 1 1141 0
 1470 003c 0129     		cmp	r1, #1
 1471 003e 5DD0     		beq	.L147
 1472              	.L140:
1154:Drivers/STM32F7xx_HAL_Driver/Src/stm32f7xx_hal_can.c ****     if (pHeader->IDE == CAN_ID_STD)
 1473              		.loc 1 1154 0
 1474 0040 0568     		ldr	r5, [r0]
ARM GAS  /var/folders/_f/lv_lzyzs40z4gsrf231fdcyh0000gn/T//ccB3MVWE.s 			page 60


 1475 0042 01F11B04 		add	r4, r1, #27
 1476 0046 2401     		lsls	r4, r4, #4
 1477 0048 2C59     		ldr	r4, [r5, r4]
 1478 004a 04F00404 		and	r4, r4, #4
 1479 004e 9460     		str	r4, [r2, #8]
1155:Drivers/STM32F7xx_HAL_Driver/Src/stm32f7xx_hal_can.c ****     {
 1480              		.loc 1 1155 0
 1481 0050 002C     		cmp	r4, #0
 1482 0052 5ED1     		bne	.L142
1157:Drivers/STM32F7xx_HAL_Driver/Src/stm32f7xx_hal_can.c ****     }
 1483              		.loc 1 1157 0
 1484 0054 0568     		ldr	r5, [r0]
 1485 0056 01F11B04 		add	r4, r1, #27
 1486 005a 2401     		lsls	r4, r4, #4
 1487 005c 2C59     		ldr	r4, [r5, r4]
 1488 005e 640D     		lsrs	r4, r4, #21
 1489 0060 1460     		str	r4, [r2]
 1490              	.L143:
1163:Drivers/STM32F7xx_HAL_Driver/Src/stm32f7xx_hal_can.c ****     pHeader->DLC = (CAN_RDT0R_DLC & hcan->Instance->sFIFOMailBox[RxFifo].RDTR) >> CAN_RDT0R_DLC_Pos
 1491              		.loc 1 1163 0
 1492 0062 0568     		ldr	r5, [r0]
 1493 0064 01F11B04 		add	r4, r1, #27
 1494 0068 2401     		lsls	r4, r4, #4
 1495 006a 2D59     		ldr	r5, [r5, r4]
 1496 006c C5F34005 		ubfx	r5, r5, #1, #1
 1497 0070 D560     		str	r5, [r2, #12]
1164:Drivers/STM32F7xx_HAL_Driver/Src/stm32f7xx_hal_can.c ****     pHeader->FilterMatchIndex = (CAN_RDT0R_FMI & hcan->Instance->sFIFOMailBox[RxFifo].RDTR) >> CAN_
 1498              		.loc 1 1164 0
 1499 0072 0568     		ldr	r5, [r0]
 1500 0074 2544     		add	r5, r5, r4
 1501 0076 6D68     		ldr	r5, [r5, #4]
 1502 0078 05F00F05 		and	r5, r5, #15
 1503 007c 1561     		str	r5, [r2, #16]
1165:Drivers/STM32F7xx_HAL_Driver/Src/stm32f7xx_hal_can.c ****     pHeader->Timestamp = (CAN_RDT0R_TIME & hcan->Instance->sFIFOMailBox[RxFifo].RDTR) >> CAN_RDT0R_
 1504              		.loc 1 1165 0
 1505 007e 0568     		ldr	r5, [r0]
 1506 0080 2544     		add	r5, r5, r4
 1507 0082 6D68     		ldr	r5, [r5, #4]
 1508 0084 C5F30725 		ubfx	r5, r5, #8, #8
 1509 0088 9561     		str	r5, [r2, #24]
1166:Drivers/STM32F7xx_HAL_Driver/Src/stm32f7xx_hal_can.c **** 
 1510              		.loc 1 1166 0
 1511 008a 0568     		ldr	r5, [r0]
 1512 008c 2C44     		add	r4, r4, r5
 1513 008e 6468     		ldr	r4, [r4, #4]
 1514 0090 240C     		lsrs	r4, r4, #16
 1515 0092 5461     		str	r4, [r2, #20]
1169:Drivers/STM32F7xx_HAL_Driver/Src/stm32f7xx_hal_can.c ****     aData[1] = (CAN_RDL0R_DATA1 & hcan->Instance->sFIFOMailBox[RxFifo].RDLR) >> CAN_RDL0R_DATA1_Pos
 1516              		.loc 1 1169 0
 1517 0094 0468     		ldr	r4, [r0]
 1518 0096 0A01     		lsls	r2, r1, #4
 1519              	.LVL118:
 1520 0098 1444     		add	r4, r4, r2
 1521 009a D4F8B841 		ldr	r4, [r4, #440]
 1522 009e 1C70     		strb	r4, [r3]
1170:Drivers/STM32F7xx_HAL_Driver/Src/stm32f7xx_hal_can.c ****     aData[2] = (CAN_RDL0R_DATA2 & hcan->Instance->sFIFOMailBox[RxFifo].RDLR) >> CAN_RDL0R_DATA2_Pos
 1523              		.loc 1 1170 0
ARM GAS  /var/folders/_f/lv_lzyzs40z4gsrf231fdcyh0000gn/T//ccB3MVWE.s 			page 61


 1524 00a0 0468     		ldr	r4, [r0]
 1525 00a2 1444     		add	r4, r4, r2
 1526 00a4 D4F8B841 		ldr	r4, [r4, #440]
 1527 00a8 240A     		lsrs	r4, r4, #8
 1528 00aa 5C70     		strb	r4, [r3, #1]
1171:Drivers/STM32F7xx_HAL_Driver/Src/stm32f7xx_hal_can.c ****     aData[3] = (CAN_RDL0R_DATA3 & hcan->Instance->sFIFOMailBox[RxFifo].RDLR) >> CAN_RDL0R_DATA3_Pos
 1529              		.loc 1 1171 0
 1530 00ac 0468     		ldr	r4, [r0]
 1531 00ae 1444     		add	r4, r4, r2
 1532 00b0 D4F8B841 		ldr	r4, [r4, #440]
 1533 00b4 240C     		lsrs	r4, r4, #16
 1534 00b6 9C70     		strb	r4, [r3, #2]
1172:Drivers/STM32F7xx_HAL_Driver/Src/stm32f7xx_hal_can.c ****     aData[4] = (CAN_RDH0R_DATA4 & hcan->Instance->sFIFOMailBox[RxFifo].RDHR) >> CAN_RDH0R_DATA4_Pos
 1535              		.loc 1 1172 0
 1536 00b8 0468     		ldr	r4, [r0]
 1537 00ba 1444     		add	r4, r4, r2
 1538 00bc D4F8B841 		ldr	r4, [r4, #440]
 1539 00c0 240E     		lsrs	r4, r4, #24
 1540 00c2 DC70     		strb	r4, [r3, #3]
1173:Drivers/STM32F7xx_HAL_Driver/Src/stm32f7xx_hal_can.c ****     aData[5] = (CAN_RDH0R_DATA5 & hcan->Instance->sFIFOMailBox[RxFifo].RDHR) >> CAN_RDH0R_DATA5_Pos
 1541              		.loc 1 1173 0
 1542 00c4 0468     		ldr	r4, [r0]
 1543 00c6 1444     		add	r4, r4, r2
 1544 00c8 D4F8BC41 		ldr	r4, [r4, #444]
 1545 00cc 1C71     		strb	r4, [r3, #4]
1174:Drivers/STM32F7xx_HAL_Driver/Src/stm32f7xx_hal_can.c ****     aData[6] = (CAN_RDH0R_DATA6 & hcan->Instance->sFIFOMailBox[RxFifo].RDHR) >> CAN_RDH0R_DATA6_Pos
 1546              		.loc 1 1174 0
 1547 00ce 0468     		ldr	r4, [r0]
 1548 00d0 1444     		add	r4, r4, r2
 1549 00d2 D4F8BC41 		ldr	r4, [r4, #444]
 1550 00d6 240A     		lsrs	r4, r4, #8
 1551 00d8 5C71     		strb	r4, [r3, #5]
1175:Drivers/STM32F7xx_HAL_Driver/Src/stm32f7xx_hal_can.c ****     aData[7] = (CAN_RDH0R_DATA7 & hcan->Instance->sFIFOMailBox[RxFifo].RDHR) >> CAN_RDH0R_DATA7_Pos
 1552              		.loc 1 1175 0
 1553 00da 0468     		ldr	r4, [r0]
 1554 00dc 1444     		add	r4, r4, r2
 1555 00de D4F8BC41 		ldr	r4, [r4, #444]
 1556 00e2 240C     		lsrs	r4, r4, #16
 1557 00e4 9C71     		strb	r4, [r3, #6]
1176:Drivers/STM32F7xx_HAL_Driver/Src/stm32f7xx_hal_can.c **** 
 1558              		.loc 1 1176 0
 1559 00e6 0468     		ldr	r4, [r0]
 1560 00e8 2244     		add	r2, r2, r4
 1561 00ea D2F8BC21 		ldr	r2, [r2, #444]
 1562 00ee 120E     		lsrs	r2, r2, #24
 1563 00f0 DA71     		strb	r2, [r3, #7]
1179:Drivers/STM32F7xx_HAL_Driver/Src/stm32f7xx_hal_can.c ****     {
 1564              		.loc 1 1179 0
 1565 00f2 B1B1     		cbz	r1, .L148
1184:Drivers/STM32F7xx_HAL_Driver/Src/stm32f7xx_hal_can.c ****     {
 1566              		.loc 1 1184 0
 1567 00f4 0129     		cmp	r1, #1
 1568 00f6 1BD0     		beq	.L149
1191:Drivers/STM32F7xx_HAL_Driver/Src/stm32f7xx_hal_can.c ****   }
 1569              		.loc 1 1191 0
 1570 00f8 0020     		movs	r0, #0
 1571              	.LVL119:
ARM GAS  /var/folders/_f/lv_lzyzs40z4gsrf231fdcyh0000gn/T//ccB3MVWE.s 			page 62


 1572 00fa 91E7     		b	.L141
 1573              	.LVL120:
 1574              	.L147:
1144:Drivers/STM32F7xx_HAL_Driver/Src/stm32f7xx_hal_can.c ****       {
 1575              		.loc 1 1144 0
 1576 00fc 0468     		ldr	r4, [r0]
 1577 00fe 2469     		ldr	r4, [r4, #16]
 1578 0100 14F0030F 		tst	r4, #3
 1579 0104 9CD1     		bne	.L140
1147:Drivers/STM32F7xx_HAL_Driver/Src/stm32f7xx_hal_can.c **** 
 1580              		.loc 1 1147 0
 1581 0106 436A     		ldr	r3, [r0, #36]
 1582              	.LVL121:
 1583 0108 43F40013 		orr	r3, r3, #2097152
 1584 010c 4362     		str	r3, [r0, #36]
1149:Drivers/STM32F7xx_HAL_Driver/Src/stm32f7xx_hal_can.c ****       }
 1585              		.loc 1 1149 0
 1586 010e 0120     		movs	r0, #1
 1587              	.LVL122:
 1588 0110 86E7     		b	.L141
 1589              	.LVL123:
 1590              	.L142:
1161:Drivers/STM32F7xx_HAL_Driver/Src/stm32f7xx_hal_can.c ****     }
 1591              		.loc 1 1161 0
 1592 0112 0568     		ldr	r5, [r0]
 1593 0114 01F11B04 		add	r4, r1, #27
 1594 0118 2401     		lsls	r4, r4, #4
 1595 011a 2C59     		ldr	r4, [r5, r4]
 1596 011c E408     		lsrs	r4, r4, #3
 1597 011e 5460     		str	r4, [r2, #4]
 1598 0120 9FE7     		b	.L143
 1599              	.LVL124:
 1600              	.L148:
1182:Drivers/STM32F7xx_HAL_Driver/Src/stm32f7xx_hal_can.c ****     }
 1601              		.loc 1 1182 0
 1602 0122 0268     		ldr	r2, [r0]
 1603 0124 D368     		ldr	r3, [r2, #12]
 1604              	.LVL125:
 1605 0126 43F02003 		orr	r3, r3, #32
 1606 012a D360     		str	r3, [r2, #12]
1191:Drivers/STM32F7xx_HAL_Driver/Src/stm32f7xx_hal_can.c ****   }
 1607              		.loc 1 1191 0
 1608 012c 0020     		movs	r0, #0
 1609              	.LVL126:
 1610 012e 77E7     		b	.L141
 1611              	.LVL127:
 1612              	.L149:
1187:Drivers/STM32F7xx_HAL_Driver/Src/stm32f7xx_hal_can.c ****     }
 1613              		.loc 1 1187 0
 1614 0130 0268     		ldr	r2, [r0]
 1615 0132 1369     		ldr	r3, [r2, #16]
 1616              	.LVL128:
 1617 0134 43F02003 		orr	r3, r3, #32
 1618 0138 1361     		str	r3, [r2, #16]
1191:Drivers/STM32F7xx_HAL_Driver/Src/stm32f7xx_hal_can.c ****   }
 1619              		.loc 1 1191 0
 1620 013a 0020     		movs	r0, #0
ARM GAS  /var/folders/_f/lv_lzyzs40z4gsrf231fdcyh0000gn/T//ccB3MVWE.s 			page 63


 1621              	.LVL129:
 1622 013c 70E7     		b	.L141
 1623              		.cfi_endproc
 1624              	.LFE153:
 1626              		.section	.text.HAL_CAN_GetRxFifoFillLevel,"ax",%progbits
 1627              		.align	1
 1628              		.global	HAL_CAN_GetRxFifoFillLevel
 1629              		.syntax unified
 1630              		.thumb
 1631              		.thumb_func
 1632              		.fpu fpv5-d16
 1634              	HAL_CAN_GetRxFifoFillLevel:
 1635              	.LFB154:
1201:Drivers/STM32F7xx_HAL_Driver/Src/stm32f7xx_hal_can.c **** 
1202:Drivers/STM32F7xx_HAL_Driver/Src/stm32f7xx_hal_can.c **** /**
1203:Drivers/STM32F7xx_HAL_Driver/Src/stm32f7xx_hal_can.c ****   * @brief  Return Rx FIFO fill level.
1204:Drivers/STM32F7xx_HAL_Driver/Src/stm32f7xx_hal_can.c ****   * @param  hcan pointer to an CAN_HandleTypeDef structure that contains
1205:Drivers/STM32F7xx_HAL_Driver/Src/stm32f7xx_hal_can.c ****   *         the configuration information for the specified CAN.
1206:Drivers/STM32F7xx_HAL_Driver/Src/stm32f7xx_hal_can.c ****   * @param  RxFifo Rx FIFO.
1207:Drivers/STM32F7xx_HAL_Driver/Src/stm32f7xx_hal_can.c ****   *         This parameter can be a value of @arg CAN_receive_FIFO_number.
1208:Drivers/STM32F7xx_HAL_Driver/Src/stm32f7xx_hal_can.c ****   * @retval Number of messages available in Rx FIFO.
1209:Drivers/STM32F7xx_HAL_Driver/Src/stm32f7xx_hal_can.c ****   */
1210:Drivers/STM32F7xx_HAL_Driver/Src/stm32f7xx_hal_can.c **** uint32_t HAL_CAN_GetRxFifoFillLevel(CAN_HandleTypeDef *hcan, uint32_t RxFifo)
1211:Drivers/STM32F7xx_HAL_Driver/Src/stm32f7xx_hal_can.c **** {
 1636              		.loc 1 1211 0
 1637              		.cfi_startproc
 1638              		@ args = 0, pretend = 0, frame = 0
 1639              		@ frame_needed = 0, uses_anonymous_args = 0
 1640              		@ link register save eliminated.
 1641              	.LVL130:
1212:Drivers/STM32F7xx_HAL_Driver/Src/stm32f7xx_hal_can.c ****   uint32_t filllevel = 0U;
1213:Drivers/STM32F7xx_HAL_Driver/Src/stm32f7xx_hal_can.c **** 
1214:Drivers/STM32F7xx_HAL_Driver/Src/stm32f7xx_hal_can.c ****   /* Check function parameters */
1215:Drivers/STM32F7xx_HAL_Driver/Src/stm32f7xx_hal_can.c ****   assert_param(IS_CAN_RX_FIFO(RxFifo));
1216:Drivers/STM32F7xx_HAL_Driver/Src/stm32f7xx_hal_can.c **** 
1217:Drivers/STM32F7xx_HAL_Driver/Src/stm32f7xx_hal_can.c ****   if ((hcan->State == HAL_CAN_STATE_READY) ||
 1642              		.loc 1 1217 0
 1643 0000 90F82030 		ldrb	r3, [r0, #32]	@ zero_extendqisi2
 1644 0004 DBB2     		uxtb	r3, r3
 1645 0006 012B     		cmp	r3, #1
 1646 0008 06D0     		beq	.L151
1218:Drivers/STM32F7xx_HAL_Driver/Src/stm32f7xx_hal_can.c ****       (hcan->State == HAL_CAN_STATE_LISTENING))
 1647              		.loc 1 1218 0 discriminator 1
 1648 000a 90F82030 		ldrb	r3, [r0, #32]	@ zero_extendqisi2
 1649 000e DBB2     		uxtb	r3, r3
1217:Drivers/STM32F7xx_HAL_Driver/Src/stm32f7xx_hal_can.c ****       (hcan->State == HAL_CAN_STATE_LISTENING))
 1650              		.loc 1 1217 0 discriminator 1
 1651 0010 022B     		cmp	r3, #2
 1652 0012 01D0     		beq	.L151
1212:Drivers/STM32F7xx_HAL_Driver/Src/stm32f7xx_hal_can.c ****   uint32_t filllevel = 0U;
 1653              		.loc 1 1212 0
 1654 0014 0020     		movs	r0, #0
 1655              	.LVL131:
1219:Drivers/STM32F7xx_HAL_Driver/Src/stm32f7xx_hal_can.c ****   {
1220:Drivers/STM32F7xx_HAL_Driver/Src/stm32f7xx_hal_can.c ****     if (RxFifo == CAN_RX_FIFO0)
1221:Drivers/STM32F7xx_HAL_Driver/Src/stm32f7xx_hal_can.c ****     {
1222:Drivers/STM32F7xx_HAL_Driver/Src/stm32f7xx_hal_can.c ****       filllevel = hcan->Instance->RF0R & CAN_RF0R_FMP0;
ARM GAS  /var/folders/_f/lv_lzyzs40z4gsrf231fdcyh0000gn/T//ccB3MVWE.s 			page 64


1223:Drivers/STM32F7xx_HAL_Driver/Src/stm32f7xx_hal_can.c ****     }
1224:Drivers/STM32F7xx_HAL_Driver/Src/stm32f7xx_hal_can.c ****     else /* RxFifo == CAN_RX_FIFO1 */
1225:Drivers/STM32F7xx_HAL_Driver/Src/stm32f7xx_hal_can.c ****     {
1226:Drivers/STM32F7xx_HAL_Driver/Src/stm32f7xx_hal_can.c ****       filllevel = hcan->Instance->RF1R & CAN_RF1R_FMP1;
1227:Drivers/STM32F7xx_HAL_Driver/Src/stm32f7xx_hal_can.c ****     }
1228:Drivers/STM32F7xx_HAL_Driver/Src/stm32f7xx_hal_can.c ****   }
1229:Drivers/STM32F7xx_HAL_Driver/Src/stm32f7xx_hal_can.c **** 
1230:Drivers/STM32F7xx_HAL_Driver/Src/stm32f7xx_hal_can.c ****   /* Return Rx FIFO fill level */
1231:Drivers/STM32F7xx_HAL_Driver/Src/stm32f7xx_hal_can.c ****   return filllevel;
1232:Drivers/STM32F7xx_HAL_Driver/Src/stm32f7xx_hal_can.c **** }
 1656              		.loc 1 1232 0
 1657 0016 7047     		bx	lr
 1658              	.LVL132:
 1659              	.L151:
1220:Drivers/STM32F7xx_HAL_Driver/Src/stm32f7xx_hal_can.c ****     {
 1660              		.loc 1 1220 0
 1661 0018 21B1     		cbz	r1, .L155
1226:Drivers/STM32F7xx_HAL_Driver/Src/stm32f7xx_hal_can.c ****     }
 1662              		.loc 1 1226 0
 1663 001a 0368     		ldr	r3, [r0]
 1664 001c 1869     		ldr	r0, [r3, #16]
 1665              	.LVL133:
 1666 001e 00F00300 		and	r0, r0, #3
 1667              	.LVL134:
 1668 0022 7047     		bx	lr
 1669              	.LVL135:
 1670              	.L155:
1222:Drivers/STM32F7xx_HAL_Driver/Src/stm32f7xx_hal_can.c ****     }
 1671              		.loc 1 1222 0
 1672 0024 0368     		ldr	r3, [r0]
 1673 0026 D868     		ldr	r0, [r3, #12]
 1674              	.LVL136:
 1675 0028 00F00300 		and	r0, r0, #3
 1676              	.LVL137:
 1677 002c 7047     		bx	lr
 1678              		.cfi_endproc
 1679              	.LFE154:
 1681              		.section	.text.HAL_CAN_ActivateNotification,"ax",%progbits
 1682              		.align	1
 1683              		.global	HAL_CAN_ActivateNotification
 1684              		.syntax unified
 1685              		.thumb
 1686              		.thumb_func
 1687              		.fpu fpv5-d16
 1689              	HAL_CAN_ActivateNotification:
 1690              	.LFB155:
1233:Drivers/STM32F7xx_HAL_Driver/Src/stm32f7xx_hal_can.c **** 
1234:Drivers/STM32F7xx_HAL_Driver/Src/stm32f7xx_hal_can.c **** /**
1235:Drivers/STM32F7xx_HAL_Driver/Src/stm32f7xx_hal_can.c ****   * @}
1236:Drivers/STM32F7xx_HAL_Driver/Src/stm32f7xx_hal_can.c ****   */
1237:Drivers/STM32F7xx_HAL_Driver/Src/stm32f7xx_hal_can.c **** 
1238:Drivers/STM32F7xx_HAL_Driver/Src/stm32f7xx_hal_can.c **** /** @defgroup CAN_Exported_Functions_Group4 Interrupts management
1239:Drivers/STM32F7xx_HAL_Driver/Src/stm32f7xx_hal_can.c ****  *  @brief    Interrupts management
1240:Drivers/STM32F7xx_HAL_Driver/Src/stm32f7xx_hal_can.c ****  *
1241:Drivers/STM32F7xx_HAL_Driver/Src/stm32f7xx_hal_can.c **** @verbatim
1242:Drivers/STM32F7xx_HAL_Driver/Src/stm32f7xx_hal_can.c ****   ==============================================================================
1243:Drivers/STM32F7xx_HAL_Driver/Src/stm32f7xx_hal_can.c ****                        ##### Interrupts management #####
ARM GAS  /var/folders/_f/lv_lzyzs40z4gsrf231fdcyh0000gn/T//ccB3MVWE.s 			page 65


1244:Drivers/STM32F7xx_HAL_Driver/Src/stm32f7xx_hal_can.c ****   ==============================================================================
1245:Drivers/STM32F7xx_HAL_Driver/Src/stm32f7xx_hal_can.c ****     [..]  This section provides functions allowing to:
1246:Drivers/STM32F7xx_HAL_Driver/Src/stm32f7xx_hal_can.c ****       (+) HAL_CAN_ActivateNotification      : Enable interrupts
1247:Drivers/STM32F7xx_HAL_Driver/Src/stm32f7xx_hal_can.c ****       (+) HAL_CAN_DeactivateNotification    : Disable interrupts
1248:Drivers/STM32F7xx_HAL_Driver/Src/stm32f7xx_hal_can.c ****       (+) HAL_CAN_IRQHandler                : Handles CAN interrupt request
1249:Drivers/STM32F7xx_HAL_Driver/Src/stm32f7xx_hal_can.c **** 
1250:Drivers/STM32F7xx_HAL_Driver/Src/stm32f7xx_hal_can.c **** @endverbatim
1251:Drivers/STM32F7xx_HAL_Driver/Src/stm32f7xx_hal_can.c ****   * @{
1252:Drivers/STM32F7xx_HAL_Driver/Src/stm32f7xx_hal_can.c ****   */
1253:Drivers/STM32F7xx_HAL_Driver/Src/stm32f7xx_hal_can.c **** 
1254:Drivers/STM32F7xx_HAL_Driver/Src/stm32f7xx_hal_can.c **** /**
1255:Drivers/STM32F7xx_HAL_Driver/Src/stm32f7xx_hal_can.c ****   * @brief  Enable interrupts.
1256:Drivers/STM32F7xx_HAL_Driver/Src/stm32f7xx_hal_can.c ****   * @param  hcan pointer to an CAN_HandleTypeDef structure that contains
1257:Drivers/STM32F7xx_HAL_Driver/Src/stm32f7xx_hal_can.c ****   *         the configuration information for the specified CAN.
1258:Drivers/STM32F7xx_HAL_Driver/Src/stm32f7xx_hal_can.c ****   * @param  ActiveITs indicates which interrupts will be enabled.
1259:Drivers/STM32F7xx_HAL_Driver/Src/stm32f7xx_hal_can.c ****   *         This parameter can be any combination of @arg CAN_Interrupts.
1260:Drivers/STM32F7xx_HAL_Driver/Src/stm32f7xx_hal_can.c ****   * @retval HAL status
1261:Drivers/STM32F7xx_HAL_Driver/Src/stm32f7xx_hal_can.c ****   */
1262:Drivers/STM32F7xx_HAL_Driver/Src/stm32f7xx_hal_can.c **** HAL_StatusTypeDef HAL_CAN_ActivateNotification(CAN_HandleTypeDef *hcan, uint32_t ActiveITs)
1263:Drivers/STM32F7xx_HAL_Driver/Src/stm32f7xx_hal_can.c **** {
 1691              		.loc 1 1263 0
 1692              		.cfi_startproc
 1693              		@ args = 0, pretend = 0, frame = 0
 1694              		@ frame_needed = 0, uses_anonymous_args = 0
 1695              		@ link register save eliminated.
 1696              	.LVL138:
1264:Drivers/STM32F7xx_HAL_Driver/Src/stm32f7xx_hal_can.c ****   /* Check function parameters */
1265:Drivers/STM32F7xx_HAL_Driver/Src/stm32f7xx_hal_can.c ****   assert_param(IS_CAN_IT(ActiveITs));
1266:Drivers/STM32F7xx_HAL_Driver/Src/stm32f7xx_hal_can.c **** 
1267:Drivers/STM32F7xx_HAL_Driver/Src/stm32f7xx_hal_can.c ****   if ((hcan->State == HAL_CAN_STATE_READY) ||
 1697              		.loc 1 1267 0
 1698 0000 90F82030 		ldrb	r3, [r0, #32]	@ zero_extendqisi2
 1699 0004 DBB2     		uxtb	r3, r3
 1700 0006 012B     		cmp	r3, #1
 1701 0008 0AD0     		beq	.L157
1268:Drivers/STM32F7xx_HAL_Driver/Src/stm32f7xx_hal_can.c ****       (hcan->State == HAL_CAN_STATE_LISTENING))
 1702              		.loc 1 1268 0 discriminator 1
 1703 000a 90F82030 		ldrb	r3, [r0, #32]	@ zero_extendqisi2
 1704 000e DBB2     		uxtb	r3, r3
1267:Drivers/STM32F7xx_HAL_Driver/Src/stm32f7xx_hal_can.c ****       (hcan->State == HAL_CAN_STATE_LISTENING))
 1705              		.loc 1 1267 0 discriminator 1
 1706 0010 022B     		cmp	r3, #2
 1707 0012 05D0     		beq	.L157
1269:Drivers/STM32F7xx_HAL_Driver/Src/stm32f7xx_hal_can.c ****   {
1270:Drivers/STM32F7xx_HAL_Driver/Src/stm32f7xx_hal_can.c ****     /* Enable the selected interrupts */
1271:Drivers/STM32F7xx_HAL_Driver/Src/stm32f7xx_hal_can.c ****     __HAL_CAN_ENABLE_IT(hcan, ActiveITs);
1272:Drivers/STM32F7xx_HAL_Driver/Src/stm32f7xx_hal_can.c **** 
1273:Drivers/STM32F7xx_HAL_Driver/Src/stm32f7xx_hal_can.c ****     /* Return function status */
1274:Drivers/STM32F7xx_HAL_Driver/Src/stm32f7xx_hal_can.c ****     return HAL_OK;
1275:Drivers/STM32F7xx_HAL_Driver/Src/stm32f7xx_hal_can.c ****   }
1276:Drivers/STM32F7xx_HAL_Driver/Src/stm32f7xx_hal_can.c ****   else
1277:Drivers/STM32F7xx_HAL_Driver/Src/stm32f7xx_hal_can.c ****   {
1278:Drivers/STM32F7xx_HAL_Driver/Src/stm32f7xx_hal_can.c ****     /* Update error code */
1279:Drivers/STM32F7xx_HAL_Driver/Src/stm32f7xx_hal_can.c ****     hcan->ErrorCode |= HAL_CAN_ERROR_NOT_INITIALIZED;
 1708              		.loc 1 1279 0
 1709 0014 436A     		ldr	r3, [r0, #36]
 1710 0016 43F48023 		orr	r3, r3, #262144
ARM GAS  /var/folders/_f/lv_lzyzs40z4gsrf231fdcyh0000gn/T//ccB3MVWE.s 			page 66


 1711 001a 4362     		str	r3, [r0, #36]
1280:Drivers/STM32F7xx_HAL_Driver/Src/stm32f7xx_hal_can.c **** 
1281:Drivers/STM32F7xx_HAL_Driver/Src/stm32f7xx_hal_can.c ****     return HAL_ERROR;
 1712              		.loc 1 1281 0
 1713 001c 0120     		movs	r0, #1
 1714              	.LVL139:
1282:Drivers/STM32F7xx_HAL_Driver/Src/stm32f7xx_hal_can.c ****   }
1283:Drivers/STM32F7xx_HAL_Driver/Src/stm32f7xx_hal_can.c **** }
 1715              		.loc 1 1283 0
 1716 001e 7047     		bx	lr
 1717              	.LVL140:
 1718              	.L157:
1271:Drivers/STM32F7xx_HAL_Driver/Src/stm32f7xx_hal_can.c **** 
 1719              		.loc 1 1271 0
 1720 0020 0268     		ldr	r2, [r0]
 1721 0022 5369     		ldr	r3, [r2, #20]
 1722 0024 1943     		orrs	r1, r1, r3
 1723              	.LVL141:
 1724 0026 5161     		str	r1, [r2, #20]
1274:Drivers/STM32F7xx_HAL_Driver/Src/stm32f7xx_hal_can.c ****   }
 1725              		.loc 1 1274 0
 1726 0028 0020     		movs	r0, #0
 1727              	.LVL142:
 1728 002a 7047     		bx	lr
 1729              		.cfi_endproc
 1730              	.LFE155:
 1732              		.section	.text.HAL_CAN_DeactivateNotification,"ax",%progbits
 1733              		.align	1
 1734              		.global	HAL_CAN_DeactivateNotification
 1735              		.syntax unified
 1736              		.thumb
 1737              		.thumb_func
 1738              		.fpu fpv5-d16
 1740              	HAL_CAN_DeactivateNotification:
 1741              	.LFB156:
1284:Drivers/STM32F7xx_HAL_Driver/Src/stm32f7xx_hal_can.c **** 
1285:Drivers/STM32F7xx_HAL_Driver/Src/stm32f7xx_hal_can.c **** /**
1286:Drivers/STM32F7xx_HAL_Driver/Src/stm32f7xx_hal_can.c ****   * @brief  Disable interrupts.
1287:Drivers/STM32F7xx_HAL_Driver/Src/stm32f7xx_hal_can.c ****   * @param  hcan pointer to an CAN_HandleTypeDef structure that contains
1288:Drivers/STM32F7xx_HAL_Driver/Src/stm32f7xx_hal_can.c ****   *         the configuration information for the specified CAN.
1289:Drivers/STM32F7xx_HAL_Driver/Src/stm32f7xx_hal_can.c ****   * @param  InactiveITs indicates which interrupts will be disabled.
1290:Drivers/STM32F7xx_HAL_Driver/Src/stm32f7xx_hal_can.c ****   *         This parameter can be any combination of @arg CAN_Interrupts.
1291:Drivers/STM32F7xx_HAL_Driver/Src/stm32f7xx_hal_can.c ****   * @retval HAL status
1292:Drivers/STM32F7xx_HAL_Driver/Src/stm32f7xx_hal_can.c ****   */
1293:Drivers/STM32F7xx_HAL_Driver/Src/stm32f7xx_hal_can.c **** HAL_StatusTypeDef HAL_CAN_DeactivateNotification(CAN_HandleTypeDef *hcan, uint32_t InactiveITs)
1294:Drivers/STM32F7xx_HAL_Driver/Src/stm32f7xx_hal_can.c **** {
 1742              		.loc 1 1294 0
 1743              		.cfi_startproc
 1744              		@ args = 0, pretend = 0, frame = 0
 1745              		@ frame_needed = 0, uses_anonymous_args = 0
 1746              		@ link register save eliminated.
 1747              	.LVL143:
1295:Drivers/STM32F7xx_HAL_Driver/Src/stm32f7xx_hal_can.c ****   /* Check function parameters */
1296:Drivers/STM32F7xx_HAL_Driver/Src/stm32f7xx_hal_can.c ****   assert_param(IS_CAN_IT(InactiveITs));
1297:Drivers/STM32F7xx_HAL_Driver/Src/stm32f7xx_hal_can.c **** 
1298:Drivers/STM32F7xx_HAL_Driver/Src/stm32f7xx_hal_can.c ****   if ((hcan->State == HAL_CAN_STATE_READY) ||
 1748              		.loc 1 1298 0
ARM GAS  /var/folders/_f/lv_lzyzs40z4gsrf231fdcyh0000gn/T//ccB3MVWE.s 			page 67


 1749 0000 90F82030 		ldrb	r3, [r0, #32]	@ zero_extendqisi2
 1750 0004 DBB2     		uxtb	r3, r3
 1751 0006 012B     		cmp	r3, #1
 1752 0008 0AD0     		beq	.L161
1299:Drivers/STM32F7xx_HAL_Driver/Src/stm32f7xx_hal_can.c ****       (hcan->State == HAL_CAN_STATE_LISTENING))
 1753              		.loc 1 1299 0 discriminator 1
 1754 000a 90F82030 		ldrb	r3, [r0, #32]	@ zero_extendqisi2
 1755 000e DBB2     		uxtb	r3, r3
